(dp0
S''
p1
I355
sS'raining'
p2
I2689
sS'schlegel'
p3
I4615
sS'haverf'
p4
I6951
sS'foun'
p5
I8035
sS'yellow'
p6
I8034
sS'four'
p7
I216
sS'gag'
p8
I5840
sS'woods'
p9
I4614
sS"friend's"
p10
I2250
sS'hanging'
p11
I1055
sS'post-grad'
p12
I4613
sS'communica'
p13
I8033
sS'looking'
p14
I291
sS'eligible'
p15
I8032
sS'snowing'
p16
I3341
sS'fingernails'
p17
I4611
sS'lord'
p18
I3346
sS'immature'
p19
I8031
sS'regional'
p20
I4610
sS'forties'
p21
I4609
sS'malfunctioned'
p22
I8030
sS'fur'
p23
I8029
sS'stabbed'
p24
I8028
sS'bringing'
p25
I1755
sS'basics'
p26
I3345
sS'clientele'
p27
I8027
sS'wednesday'
p28
I3344
sS'reliable'
p29
I7518
sS'non-violent'
p30
I8026
sS'tired'
p31
I884
sS'miller'
p32
I1759
sS'pulse'
p33
I8025
sS'tires'
p34
I8024
sS'second'
p35
I342
sS'loathing'
p36
I8023
sS'shmoe'
p37
I8022
sS'errors'
p38
I4608
sS'relieving'
p39
I8021
sS'forgetting'
p40
I4412
sS'cooking'
p41
I1981
sS'fingers'
p42
I4607
sS'contributes'
p43
I4606
sS'shocks'
p44
I8020
sS'specialist'
p45
I8019
sS'remem'
p46
I8018
sS'hero'
p47
I8017
sS'interrupting'
p48
I4605
sS'here'
p49
I103
sS'reported'
p50
I4604
sS'china'
p51
I1758
sS'dorm'
p52
I3343
sS'affiliated'
p53
I8016
sS'kids'
p54
I157
sS'k'
p55
I1102
sS'reports'
p56
I3342
sS'controversy'
p57
I8014
sS'electricity'
p58
I4612
sS"i'd"
p59
I444
sS'infocell'
p60
I8013
sS'military'
p61
I1757
sS"i'm"
p62
I91
sS'spotty'
p63
I8012
sS'remodeled'
p64
I5677
sS'replace'
p65
I3339
sS'brought'
p66
I1490
sS'hol-'
p67
I8011
sS'cocaine'
p68
I3304
sS'univ'
p69
I8009
sS'unit'
p70
I3338
sS'dne'
p71
I8008
sS'cheating'
p72
I2687
sS'spoke'
p73
I912
sS'music'
p74
I357
sS'therefore'
p75
I2686
sS'strike'
p76
I601
sS'until'
p77
I354
sS'paperwork'
p78
I1756
sS'holy'
p79
I1980
sS'relax'
p80
I1003
sS'successful'
p81
I3337
sS'brings'
p82
I2685
sS'symbolisms'
p83
I8007
sS'yahoo'
p84
I2684
sS'hurt'
p85
I911
sS'glass'
p86
I2249
sS'holi'
p87
I8006
sS'hole'
p88
I3336
sS'hold'
p89
I630
sS'unpack'
p90
I8005
sS'circumstances'
p91
I1979
sS'locked'
p92
I3335
sS'pursue'
p93
I4603
sS'accomplishment'
p94
I1298
sS'rulings'
p95
I8004
sS'locker'
p96
I4602
sS'example'
p97
I1054
sS'unjust'
p98
I8003
sS'household'
p99
I8002
sS'caution'
p100
I8001
sS'want'
p101
I100
sS'counseling'
p102
I2683
sS'absolute'
p103
I8000
sS'hog'
p104
I4601
sS'complaining'
p105
I1383
sS'hoo'
p106
I3334
sS'travel'
p107
I1227
sS'feature'
p108
I2330
sS'machine'
p109
I1382
sS'how'
p110
I67
sS'hot'
p111
I1158
sS'hor'
p112
I7999
sS'hop'
p113
I2682
sS'beauty'
p114
I7998
sS'wan-'
p115
I7997
sS'eighty-eight'
p116
I7996
sS'wrong'
p117
I493
sS'sentencing'
p118
I7762
sS'types'
p119
I3332
sS'effective'
p120
I2681
sS'wins'
p121
I7994
sS'headquarters'
p122
I3331
sS'discontinued'
p123
I3567
sS'cigarettes'
p124
I1489
sS'beeping'
p125
I1488
sS'ho'
p126
I960
sS'keeps'
p127
I1053
sS'democratic'
p128
I4599
sS'wing'
p129
I7993
sS'wind'
p130
I3330
sS'wine'
p131
I4598
sS'restriction'
p132
I4597
sS'vary'
p133
I4596
sS"hiv's"
p134
I7992
sS'activating'
p135
I7991
sS'fir'
p136
I2680
sS'fit'
p137
I2248
sS'conversa-'
p138
I7990
sS'lifeline'
p139
I7989
sS'screaming'
p140
I2688
sS'fix'
p141
I1381
sS'auditors'
p142
I4595
sS'matured'
p143
I7988
sS'fif'
p144
I7987
sS'fig'
p145
I7986
sS'hidden'
p146
I4594
sS'easier'
p147
I910
sS'educating'
p148
I4593
sS'preemie'
p149
I4592
sS'effects'
p150
I2247
sS'schools'
p151
I343
sS'township'
p152
I7985
sS'sixteen'
p153
I1002
sS'silver'
p154
I7984
sS'represents'
p155
I3328
sS'crops'
p156
I6399
sS'addicted'
p157
I4591
sS'volcano'
p158
I1487
sS'weirdos'
p159
I2679
sS'whim'
p160
I7983
sS'financial'
p161
I1105
sS'series'
p162
I1754
sS'retaliative'
p163
I6398
sS'whiz'
p164
I7981
sS"we'd"
p165
I2677
sS'cathedral'
p166
I3326
sS'ring'
p167
I3106
sS'misfortune'
p168
I7980
sS'oprah'
p169
I4590
sS'ha'
p170
I514
sS'sms'
p171
I4589
sS'mason'
p172
I7979
sS're'
p173
I1104
sS'rf'
p174
I4462
sS'adapt'
p175
I4588
sS'millions'
p176
I1311
sS'rh'
p177
I7977
sS'ri'
p178
I1297
sS'rj'
p179
I4587
sS'foundation'
p180
I3325
sS'millburn'
p181
I3253
sS'surveys'
p182
I7975
sS'solution'
p183
I7982
sS'jennif'
p184
I7974
sS'grapes'
p185
I3324
sS'sheet'
p186
I1901
sS'bora-bora'
p187
I1753
sS'ate'
p188
I7973
sS'rumple'
p189
I7972
sS'flurry'
p190
I5832
sS'robitussin'
p191
I7971
sS'heading'
p192
I3003
sS'att'
p193
I1949
sS"today's"
p194
I1976
sS'r-'
p195
I4585
sS'whirlwind'
p196
I6396
sS'crossings'
p197
I7969
sS'stripe'
p198
I7968
sS'-ike'
p199
I7967
sS'steroids'
p200
I4584
sS'channels'
p201
I4583
sS'wash'
p202
I7966
sS'kfc'
p203
I7965
sS'ente'
p204
I6395
sS'clarity'
p205
I2245
sS'olds'
p206
I7964
sS'basketball'
p207
I506
sS'renovated'
p208
I7963
sS'service'
p209
I418
sS'engagement'
p210
I7961
sS'needed'
p211
I1052
sS'master'
p212
I4582
sS'hypothetical'
p213
I3323
sS'legs'
p214
I2675
sS'listen'
p215
I407
sS'kno'
p216
I7507
sS'predictable'
p217
I4581
sS'crawl'
p218
I7960
sS'trek'
p219
I3322
sS'showed'
p220
I1752
sS'tree'
p221
I1975
sS'nations'
p222
I7959
sS'seminars'
p223
I4580
sS'feeling'
p224
I699
sS'boston'
p225
I4579
sS'spectrum'
p226
I2674
sS'corny'
p227
I3321
sS'dozen'
p228
I4578
sS'concrete'
p229
I7958
sS'kaye'
p230
I7957
sS'responsible'
p231
I3319
sS'amusing'
p232
I7956
sS'doors'
p233
I2244
sS'committing'
p234
I7955
sS'thrilled'
p235
I7954
sS'screwing'
p236
I7953
sS'object'
p237
I3318
sS'wells'
p238
I7952
sS'mouth'
p239
I1751
sS'addict'
p240
I7951
sS'letter'
p241
I4577
sS'drought'
p242
I7950
sS'morality'
p243
I7949
sS'expound'
p244
I7948
sS'singer'
p245
I3317
sS'episode'
p246
I2673
sS'professor'
p247
I2672
sS'camp'
p248
I3316
sS'detectors'
p249
I7947
sS'tech'
p250
I1602
sS'landsdowne'
p251
I7946
sS'nineteenth'
p252
I7945
sS'someb'
p253
I5825
sS'came'
p254
I321
sS'saying'
p255
I236
sS'bomb'
p256
I2671
sS'meetings'
p257
I2670
sS'participate'
p258
I1226
sS'lethal'
p259
I7944
sS'lessons'
p260
I7943
sS'orleans'
p261
I7942
sS'touches'
p262
I7941
sS'busy'
p263
I505
sS'headline'
p264
I7940
sS'cousins'
p265
I3315
sS'bust'
p266
I4576
sS'rico'
p267
I7939
sS'touched'
p268
I3314
sS'rich'
p269
I1001
sS'rice'
p270
I7938
sS'hooking'
p271
I5477
sS'pocket'
p272
I1974
sS'altogether'
p273
I7937
sS'tips'
p274
I6390
sS'vicariously'
p275
I7936
sS'autistic'
p276
I7935
sS'textbooks'
p277
I4575
sS'adherence'
p278
I4574
sS'respond'
p279
I7934
sS'mandatory'
p280
I1103
sS'disaster'
p281
I4573
sS'fair'
p282
I1000
sS'sensitivity'
p283
I7933
sS'naturalness'
p284
I7932
sS'radius'
p285
I4572
sS'result'
p286
I7931
sS'hammer'
p287
I4571
sS'best'
p288
I353
sS'manson'
p289
I7930
sS'lots'
p290
I740
sS'irs'
p291
I4570
sS'rings'
p292
I4569
sS'stamps'
p293
I7929
sS'score'
p294
I4568
sS'looki-'
p295
I7928
sS'florum'
p296
I7319
sS'preserve'
p297
I7926
sS'discipline'
p298
I3313
sS'men'
p299
I1201
sS'extend'
p300
I4337
sS'nature'
p301
I1295
sS'smelled'
p302
I4336
sS'extent'
p303
I2242
sS'debt'
p304
I3312
sS'roller'
p305
I2241
sS'tyranny'
p306
I7925
sS'accident'
p307
I1486
sS'sacrificing'
p308
I7924
sS'country'
p309
I361
sS'heating'
p310
I7923
sS'planned'
p311
I3311
sS'marrying'
p312
I6091
sS'argue'
p313
I3310
sS'adapted'
p314
I7921
sS'asked'
p315
I629
sS'and'
p316
I9
sS'mortified'
p317
I7920
sS'canyon'
p318
I7919
sS'minuses'
p319
I4565
sS'pregnancy'
p320
I3309
sS'diff'
p321
I7918
sS'priceline'
p322
I7917
sS'cardboard'
p323
I3000
sS'union'
p324
I360
sS'twain'
p325
I3308
sS'much'
p326
I105
sS'stadium'
p327
I4564
sS'tallest'
p328
I7916
sS'michele'
p329
I3562
sS'life'
p330
I261
sS'crying'
p331
I3307
sS'spit'
p332
I3306
sS'eastern'
p333
I2240
sS'worker'
p334
I2669
sS'dave'
p335
I1380
sS'substance'
p336
I2668
sS'child'
p337
I497
sS'worked'
p338
I309
sS'spin'
p339
I7915
sS'pre-employment'
p340
I7914
sS'dissect'
p341
I7913
sS'professionally'
p342
I7912
sS'elaborate'
p343
I8015
sS'played'
p344
I651
sS'player'
p345
I1225
sS'top-'
p346
I7911
sS'eighteen'
p347
I909
sS'campaigning'
p348
I7190
sS'things'
p349
I128
sS'split'
p350
I4563
sS'babies'
p351
I1973
sS'european'
p352
I7909
sS'fairly'
p353
I1484
sS'marches'
p354
I7908
sS'tops'
p355
I4561
sS'workforce'
p356
I4560
sS'reruns'
p357
I7907
sS'ownership'
p358
I7906
sS'tune'
p359
I4559
sS'intrusion'
p360
I4558
sS'burgers'
p361
I3151
sS'echoes'
p362
I7905
sS'corporate'
p363
I2238
sS'opinions'
p364
I2237
sS'capitol'
p365
I7904
sS'distribute'
p366
I4262
sS'sleepy'
p367
I3305
sS'whatnot'
p368
I2236
sS'disguise'
p369
I7902
sS'financially'
p370
I2667
sS'rushing'
p371
I7901
sS'previous'
p372
I2666
sS'collectibles'
p373
I7900
sS'han'
p374
I7899
sS'had'
p375
I94
sS'advancement'
p376
I7898
sS'hay'
p377
I7897
sS'collections'
p378
I1972
sS'innocent'
p379
I1600
sS'prison'
p380
I975
sS'hap'
p381
I7896
sS'har'
p382
I7895
sS'has'
p383
I121
sS'hat'
p384
I7894
sS"t's"
p385
I7893
sS'mcnabb'
p386
I7624
sS'casually'
p387
I7892
sS'posed'
p388
I7891
sS'possible'
p389
I1483
sS'possibly'
p390
I1101
sS'outcoming'
p391
I7890
sS'birth'
p392
I1971
sS'unique'
p393
I7889
sS'occurring'
p394
I7888
sS'desire'
p395
I4557
sS'scanlin'
p396
I4556
sS'ha-'
p397
I4555
sS'bobby'
p398
I7887
sS'remind'
p399
I7886
sS'disconnects'
p400
I7885
sS'steps'
p401
I2665
sS'prologue'
p402
I4554
sS'mcgwire'
p403
I4553
sS'bonkers'
p404
I4552
sS'beneficial'
p405
I2235
sS'right'
p406
I31
sS'old'
p407
I188
sS'creek'
p408
I7884
sS'crowd'
p409
I1970
sS'people'
p410
I62
sS'crown'
p411
I7883
sS'a-are'
p412
I7882
sS'harassment'
p413
I7881
sS'glenside'
p414
I6928
sS'classifieds'
p415
I8010
sS'for'
p416
I34
sS'bottom'
p417
I2664
sS'fox'
p418
I4551
sS'creative'
p419
I7880
sS'fog'
p420
I4220
sS'dental'
p421
I7879
sS'binder'
p422
I7878
sS'defensive'
p423
I7877
sS'losing'
p424
I2234
sS'memorable'
p425
I1224
sS'manufacturing'
p426
I7876
sS'tutmosa'
p427
I7875
sS'cu-'
p428
I7874
sS'shaken'
p429
I7873
sS'benches'
p430
I7872
sS'dollars'
p431
I262
sS'citizens'
p432
I7871
sS'o'
p433
I578
sS'palestinians'
p434
I7870
sS'slightly'
p435
I7869
sS'raised'
p436
I974
sS'statements'
p437
I7868
sS'facility'
p438
I3303
sS'honeymoon'
p439
I1969
sS'som'
p440
I3302
sS'son'
p441
I399
sS'thankful'
p442
I2663
sS'beings'
p443
I7867
sS'magazines'
p444
I2662
sS'raises'
p445
I2233
sS'wrap'
p446
I3301
sS'shoots'
p447
I7866
sS'fabric'
p448
I4550
sS'support'
p449
I1050
sS'constantly'
p450
I2232
sS'knowing'
p451
I1367
sS'avail'
p452
I7865
sS'senate'
p453
I7864
sS'authorized'
p454
I7863
sS'jane'
p455
I7862
sS'overhead'
p456
I6373
sS'on-line'
p457
I1598
sS'happy'
p458
I556
sS'offer'
p459
I973
sS'back'
p460
I147
sS'congratulations'
p461
I1968
sS"else's"
p462
I1597
sS'inside'
p463
I679
sS'nicest'
p464
I7860
sS'rerun'
p465
I7859
sS'smashed'
p466
I7858
sS'dues'
p467
I3300
sS'<unk>'
p468
I1
sS'passenger'
p469
I1750
sS'later'
p470
I622
sS'liberal'
p471
I3299
sS'puerto'
p472
I2259
sS'proven'
p473
I3298
sS'exist'
p474
I7856
sS'females'
p475
I3297
sS'ericsson'
p476
I1049
sS'tyrique'
p477
I7855
sS'floor'
p478
I944
sS'actor'
p479
I1379
sS'three-nothing'
p480
I7854
sS'flood'
p481
I7853
sS'role'
p482
I735
sS'benefiting'
p483
I7852
sS'smell'
p484
I2229
sS'roll'
p485
I1967
sS'intend'
p486
I3296
sS'models'
p487
I2228
sS'stealing'
p488
I7647
sS'acquaintance'
p489
I7850
sS'invested'
p490
I6862
sS'smelling'
p491
I7848
sS'rolling'
p492
I7847
sS'explosions'
p493
I4548
sS'congested'
p494
I3295
sS'nineteen-forties'
p495
I6606
sS'aerobic'
p496
I3787
sS'time'
p497
I96
sS'push'
p498
I1378
sS'chain'
p499
I2227
sS'whoever'
p500
I1100
sS'activated'
p501
I1966
sS'theaters'
p502
I1965
sS'skate'
p503
I4547
sS'skiing'
p504
I3293
sS'vet'
p505
I4546
sS'ver'
p506
I4545
sS'four-oh-one'
p507
I6803
sS'veg'
p508
I4544
sS'hobbies'
p509
I7643
sS'sneakers'
p510
I7844
sS'bogus'
p511
I5553
sS'downloading'
p512
I7843
sS'choico'
p513
I7842
sS'prepaid'
p514
I7841
sS'revamping'
p515
I7840
sS'choice'
p516
I722
sS"nokia's"
p517
I7839
sS'drexel'
p518
I4542
sS'bustle'
p519
I4541
sS'stays'
p520
I3292
sS'fullest'
p521
I7838
sS'exact'
p522
I1596
sS'jers'
p523
I4756
sS'tear'
p524
I7837
sS'leave'
p525
I452
sS'settle'
p526
I2661
sS'subway'
p527
I3291
sS'team'
p528
I562
sS'speculation'
p529
I7836
sS'leavi'
p530
I7835
sS'attic'
p531
I7834
sS'hindered'
p532
I6745
sS'sign'
p533
I1099
sS'headset'
p534
I7832
sS'educate'
p535
I1964
sS'elton'
p536
I2660
sS'jeopardy'
p537
I7831
sS'realizing'
p538
I6271
sS'current'
p539
I7830
sS'extraterrestrial'
p540
I7829
sS'nacac'
p541
I7828
sS'falling'
p542
I4540
sS'boost'
p543
I3060
sS'jury'
p544
I1482
sS'oldies'
p545
I4538
sS'grandparents'
p546
I1963
sS'understanding'
p547
I4537
sS'snack'
p548
I7827
sS'yards'
p549
I2659
sS'alone'
p550
I943
sS'along'
p551
I824
sS'testings'
p552
I7826
sS'molestation'
p553
I7825
sS'enroll'
p554
I4536
sS'redemption'
p555
I4535
sS'dusty'
p556
I7824
sS'studied'
p557
I2658
sS'funded'
p558
I2657
sS"anybody's"
p559
I7823
sS'accomplished'
p560
I7822
sS'chanting'
p561
I7821
sS'studies'
p562
I1481
sS'spurts'
p563
I7820
sS'love'
p564
I391
sS'pentium'
p565
I2226
sS'prefer'
p566
I1156
sS'ipo'
p567
I7819
sS'logical'
p568
I7818
sS'fake'
p569
I2655
sS'red'
p570
I1377
sS'working'
p571
I247
sS'positive'
p572
I1294
sS'angry'
p573
I1962
sS'parsippany'
p574
I1748
sS'imaginations'
p575
I7817
sS'opposed'
p576
I1223
sS'wondering'
p577
I1222
sS'films'
p578
I3290
sS'scope'
p579
I7816
sS'loving'
p580
I4534
sS'scratched'
p581
I7815
sS'afford'
p582
I1480
sS'egyptology'
p583
I7814
sS'oregon'
p584
I2654
sS'non-family'
p585
I6615
sS'everywhere'
p586
I1098
sS'voicestream'
p587
I698
sS'involve'
p588
I6367
sS'valued'
p589
I4533
sS'deserved'
p590
I7485
sS'originally'
p591
I1048
sS'pretend'
p592
I7812
sS'privy'
p593
I7811
sS'believer'
p594
I3288
sS'believes'
p595
I3287
sS'psats'
p596
I7810
sS'values'
p597
I7809
sS'albright'
p598
I7808
sS'believed'
p599
I2506
sS'admired'
p600
I7807
sS'awesome'
p601
I791
sS'locks'
p602
I4532
sS'allowed'
p603
I765
sS'stole'
p604
I4531
sS'evidently'
p605
I7806
sS'listens'
p606
I7805
sS'monitoring'
p607
I2653
sS'winter'
p608
I1479
sS'piled'
p609
I7804
sS'immune'
p610
I7803
sS's-'
p611
I4530
sS'five-year'
p612
I7802
sS'snaps'
p613
I7801
sS'laundry'
p614
I7800
sS'spot'
p615
I3286
sS'explored'
p616
I7799
sS'date'
p617
I1746
sS'such'
p618
I547
sS'suck'
p619
I4529
sS'data'
p620
I1745
sS'stress'
p621
I1376
sS'surfing'
p622
I2652
sS'natural'
p623
I1097
sS'conscious'
p624
I4528
sS'sp'
p625
I1961
sS'sw'
p626
I7798
sS'su'
p627
I2651
sS'sk'
p628
I7797
sS'opinionated'
p629
I7796
sS'si'
p630
I7795
sS'sh'
p631
I618
sS'so'
p632
I22
sS'sm'
p633
I7794
sS'sc'
p634
I7793
sS'sa'
p635
I4527
sS'pulled'
p636
I1478
sS'se'
p637
I2650
sS'years'
p638
I162
sS'professors'
p639
I7792
sS'hiring'
p640
I3285
sS'episodes'
p641
I7791
sS'tendency'
p642
I3284
sS'solitary'
p643
I3283
sS'avid'
p644
I7790
sS'thumb'
p645
I7789
sS'jim'
p646
I2649
sS'troubles'
p647
I4526
sS'sixties'
p648
I2648
sS'attraction'
p649
I7788
sS'abusive'
p650
I7787
sS'civilian'
p651
I7786
sS'smarter'
p652
I4525
sS'doll'
p653
I5995
sS'nation'
p654
I7785
sS'drilling'
p655
I7784
sS'in-laws'
p656
I2225
sS'breezing'
p657
I7783
sS'shouted'
p658
I7782
sS'millersville'
p659
I7781
sS'bowling'
p660
I4523
sS'quarter'
p661
I2647
sS'square'
p662
I2646
sS'sit-ins'
p663
I7780
sS'submatriculation'
p664
I7779
sS'sexually'
p665
I7778
sS'disasters'
p666
I4522
sS'workaholic'
p667
I7777
sS'seriously'
p668
I1221
sS'investigation'
p669
I7776
sS'internet'
p670
I455
sS'formula'
p671
I7775
sS'flurries'
p672
I7774
sS'complicates'
p673
I7773
sS'hairdresser'
p674
I7772
sS'million'
p675
I496
sS'seventh'
p676
I1698
sS'possibility'
p677
I3282
sS'quite'
p678
I519
sS'disrespect'
p679
I4521
sS'bumps'
p680
I7770
sS'crazies'
p681
I6384
sS'besides'
p682
I1744
sS'seventy'
p683
I650
sS'training'
p684
I823
sS'alw-'
p685
I7768
sS'punk'
p686
I3280
sS'initiate'
p687
I3279
sS'aboard'
p688
I7767
sS"get's"
p689
I7766
sS'under-grad'
p690
I7765
sS'alives'
p691
I7555
sS'saving'
p692
I2645
sS'spoken'
p693
I1960
sS'clause'
p694
I7764
sS'parkinson'
p695
I7763
sS'one'
p696
I58
sS'chump'
p697
I7995
sS"eddie's"
p698
I7761
sS'submit'
p699
I7760
sS'spanish'
p700
I662
sS'vote'
p701
I4520
sS'chubby'
p702
I4519
sS'open'
p703
I697
sS'affords'
p704
I7759
sS'city'
p705
I249
sS'boulevard'
p706
I3278
sS'wrath'
p707
I3277
sS'bite'
p708
I7758
sS'twenties'
p709
I2644
sS'typing'
p710
I2643
sS'bits'
p711
I7757
sS'fmc'
p712
I1959
sS'williams'
p713
I3276
sS'ridiculous'
p714
I942
sS'boyfriend'
p715
I1220
sS'lucent'
p716
I4518
sS'impractical'
p717
I7756
sS'depressed'
p718
I3275
sS'non-stop'
p719
I7755
sS'crossroads'
p720
I7754
sS'future'
p721
I2224
sS'counselor'
p722
I4517
sS'damned'
p723
I2110
sS'san'
p724
I1375
sS'sam'
p725
I2109
sS'turned'
p726
I1155
sS'argument'
p727
I4516
sS'jewels'
p728
I6279
sS'sad'
p729
I764
sS'say'
p730
I102
sS'allen'
p731
I7751
sS'saw'
p732
I331
sS'sav'
p733
I7750
sS'sat'
p734
I1958
sS'baggage'
p735
I7749
sS'aside'
p736
I4515
sS'zoo'
p737
I1595
sS'jefferson'
p738
I4514
sS'take'
p739
I148
sS'wanting'
p740
I2981
sS'noti'
p741
I6249
sS"teacher's"
p742
I7747
sS'ironically'
p743
I3587
sS'opposite'
p744
I1594
sS'knew'
p745
I438
sS'airing'
p746
I7745
sS'printed'
p747
I4512
sS'knee'
p748
I7744
sS'pager'
p749
I7743
sS'pages'
p750
I3274
sS'touchy'
p751
I7742
sS'average'
p752
I1593
sS'sale'
p753
I1423
sS'sodas'
p754
I7741
sS'ways'
p755
I1047
sS'salt'
p756
I7740
sS'laws'
p757
I1743
sS'walking'
p758
I822
sS'merit'
p759
I7739
sS'bright'
p760
I2642
sS'aggressive'
p761
I7738
sS'imagined'
p762
I4511
sS'slow'
p763
I1154
sS'conduction'
p764
I7737
sS'tears'
p765
I4510
sS'going'
p766
I61
sS'hockey'
p767
I821
sS'equipped'
p768
I7736
sS'beatles'
p769
I4509
sS'novels'
p770
I5606
sS'digitize'
p771
I3273
sS'assistant'
p772
I2641
sS'freezing'
p773
I3272
sS'outlet'
p774
I7735
sS'theyself'
p775
I7734
sS'awaiting'
p776
I7733
sS'prime'
p777
I4508
sS'resource'
p778
I7732
sS'borrow'
p779
I4507
sS'worried'
p780
I1219
sS'tenured'
p781
I7731
sS'priest'
p782
I4506
sS'roger'
p783
I2640
sS'bombs'
p784
I7730
sS'liable'
p785
I4505
sS'where'
p786
I90
sS'artistically'
p787
I4504
sS'banged'
p788
I7728
sS'anyways'
p789
I2639
sS'espp'
p790
I7727
sS'surgery'
p791
I2638
sS"alex's"
p792
I7726
sS'cis'
p793
I7725
sS'cir'
p794
I7467
sS'diddle'
p795
I7724
sS'sites'
p796
I7723
sS'sponsorship'
p797
I7722
sS'vaccines'
p798
I4502
sS'legals'
p799
I7721
sS'affecting'
p800
I4501
sS'enjoys'
p801
I2783
sS'man-'
p802
I7719
sS'punta'
p803
I3271
sS'jobs'
p804
I577
sS'marvin'
p805
I4426
sS'screen'
p806
I1769
sS'preach'
p807
I7716
sS'dome'
p808
I7715
sS'supermarket'
p809
I7714
sS'concentrate'
p810
I3270
sS'spare'
p811
I7713
sS'jets'
p812
I1333
sS'quack'
p813
I7711
sS'many'
p814
I176
sS'millionaire'
p815
I7710
sS's'
p816
I284
sS'workplace'
p817
I2637
sS'expression'
p818
I4499
sS"can't"
p819
I288
sS'yearly'
p820
I7709
sS'ants'
p821
I7708
sS'twin'
p822
I7707
sS'anti'
p823
I1704
sS'boat'
p824
I1592
sS'handing'
p825
I7746
sS'freakiest'
p826
I5185
sS'stretch'
p827
I3269
sS'west'
p828
I511
sS'locally'
p829
I7704
sS'vacation'
p830
I649
sS'camelback'
p831
I7703
sS'breath'
p832
I13
sS'combined'
p833
I2636
sS'reflex'
p834
I7702
sS'wants'
p835
I539
sS'influence'
p836
I7701
sS'thousand'
p837
I427
sS'formed'
p838
I2635
sS'readings'
p839
I4498
sS'fliers'
p840
I3096
sS'engineering'
p841
I1342
sS'hayes'
p842
I4496
sS'policies'
p843
I7699
sS'newspaper'
p844
I883
sS'situation'
p845
I589
sS'educations'
p846
I6220
sS'canoe'
p847
I7698
sS'twists'
p848
I4495
sS'engaged'
p849
I2935
sS'blah'
p850
I922
sS'technology'
p851
I1374
sS'fame'
p852
I2223
sS'shuts'
p853
I7696
sS'preparatory'
p854
I7695
sS'dadadadadada'
p855
I4747
sS'workout'
p856
I6353
sS'incomings'
p857
I7693
sS'sickness'
p858
I4492
sS'voicedial'
p859
I7692
sS'harris'
p860
I7691
sS'wired'
p861
I7690
sS'advertisement'
p862
I7689
sS'pacino'
p863
I2634
sS'coursework'
p864
I7687
sS'costs'
p865
I1591
sS'trains'
p866
I1590
sS'genie'
p867
I7686
sS'hubby'
p868
I7685
sS'scholarship'
p869
I1476
sS'summer'
p870
I678
sS'recycles'
p871
I7684
sS'being'
p872
I238
sS'rest'
p873
I617
sS'recycled'
p874
I4491
sS'reimbursed'
p875
I7458
sS'planets'
p876
I5967
sS'weekly'
p877
I2222
sS'skied'
p878
I7682
sS'geological'
p879
I7681
sS'pov'
p880
I5180
sS'starving'
p881
I3268
sS'around'
p882
I168
sS'dark'
p883
I7680
sS'traffic'
p884
I882
sS'preference'
p885
I4488
sS'world'
p886
I341
sS'postal'
p887
I1957
sS'vague'
p888
I7679
sS'dare'
p889
I3267
sS'intel'
p890
I7678
sS'stranger'
p891
I4489
sS'clay'
p892
I7677
sS'seating'
p893
I5792
sS'learning'
p894
I1563
sS'pushy'
p895
I7675
sS'lobster'
p896
I1956
sS'thinks'
p897
I1475
sS'scandals'
p898
I7674
sS'scholarships'
p899
I1474
sS"there'll"
p900
I3266
sS'memories'
p901
I4487
sS'noon'
p902
I3265
sS'vender'
p903
I7673
sS'ventilation'
p904
I6349
sS'ac-'
p905
I7671
sS'exit'
p906
I2633
sS'poli'
p907
I5175
sS'mazarati'
p908
I7670
sS'biased'
p909
I7669
sS'scientific'
p910
I4485
sS'power'
p911
I849
sS'intimate'
p912
I7668
sS'ratios'
p913
I7667
sS'standpoint'
p914
I4484
sS'stone'
p915
I4483
sS'package'
p916
I1046
sS'industry'
p917
I1218
sS'ach'
p918
I2632
sS'favorite'
p919
I695
sS'abington'
p920
I5767
sS'meal'
p921
I1848
sS'neighbor'
p922
I1955
sS'act'
p923
I941
sS'bond'
p924
I1387
sS'm-my'
p925
I7666
sS'burning'
p926
I999
sS'headsets'
p927
I7665
sS'image'
p928
I2220
sS'bensalem'
p929
I661
sS'essex'
p930
I4482
sS'freaked'
p931
I1954
sS'widower'
p932
I7664
sS'lively'
p933
I7663
sS'homeless'
p934
I5693
sS'parties'
p935
I1588
sS'technically'
p936
I4481
sS'tropical'
p937
I1703
sS"how's"
p938
I3281
sS'her'
p939
I150
sS'philadelphia'
p940
I237
sS'springsteen'
p941
I3773
sS'hee'
p942
I4480
sS"how'd"
p943
I3262
sS'mindless'
p944
I4479
sS'sealed'
p945
I7661
sS'hel'
p946
I7660
sS'bubble'
p947
I7659
sS'complete'
p948
I2630
sS'rorie'
p949
I4477
sS"child's"
p950
I7658
sS'survived'
p951
I7657
sS'technologies'
p952
I4476
sS'with'
p953
I53
sS'buying'
p954
I763
sS'abused'
p955
I7656
sS'pull'
p956
I1252
sS'rush'
p957
I2629
sS'october'
p958
I1587
sS'cyclops'
p959
I7655
sS'dirty'
p960
I7654
sS'dispensing'
p961
I5196
sS'politically'
p962
I7652
sS'agree'
p963
I302
sS'detailed'
p964
I7651
sS'gone'
p965
I538
sS'ac'
p966
I1741
sS'vehicles'
p967
I5764
sS'ad'
p968
I1473
sS'johnny'
p969
I7650
sS"general's"
p970
I5621
sS'exhausted'
p971
I7648
sS'certain'
p972
I434
sS'accents'
p973
I4475
sS'doug'
p974
I7333
sS'am'
p975
I41
sS'al'
p976
I1740
sS'watches'
p977
I3261
sS'an'
p978
I104
sS'ap'
p979
I7646
sS'as'
p980
I69
sS'ar'
p981
I3718
sS'associating'
p982
I7644
sS'at'
p983
I51
sS'aw'
p984
I546
sS'walks'
p985
I2871
sS'watched'
p986
I1096
sS'cream'
p987
I4474
sS'ideally'
p988
I4473
sS'mandated'
p989
I6347
sS'graduate'
p990
I790
sS'tight'
p991
I2217
sS'pre-kindergarten'
p992
I7642
sS'gifts'
p993
I2628
sS'herbs'
p994
I7641
sS'midget'
p995
I7640
sS'terry'
p996
I2627
sS'scranton'
p997
I4472
sS'dyed'
p998
I4471
sS'hello'
p999
I532
sS'mass'
p1000
I4470
sS'ear-piercing'
p1001
I4469
sS'original'
p1002
I3260
sS'consider'
p1003
I1292
sS'ore'
p1004
I6111
sS'fifty-one'
p1005
I3259
sS'caused'
p1006
I4468
sS'code'
p1007
I2600
sS'tours'
p1008
I4466
sS'jason'
p1009
I1822
sS'reasoning'
p1010
I7639
sS'causes'
p1011
I3258
sS'walkie-talkie'
p1012
I3544
sS'hunting'
p1013
I1399
sS'ty'
p1014
I7637
sS'tv'
p1015
I337
sS'tw'
p1016
I4464
sS'tait'
p1017
I4463
sS'tr'
p1018
I1586
sS'encourage'
p1019
I1978
sS'champions'
p1020
I4722
sS'riots'
p1021
I7636
sS'to'
p1022
I12
sS'th'
p1023
I244
sS'ti'
p1024
I3256
sS'smile'
p1025
I3684
sS'te'
p1026
I4460
sS'midwest'
p1027
I2626
sS'ta'
p1028
I1952
sS'yadrow'
p1029
I7634
sS'case'
p1030
I616
sS'returned'
p1031
I3255
sS'documentaries'
p1032
I7633
sS'freebee'
p1033
I7632
sS'wor-'
p1034
I7205
sS'condition'
p1035
I7631
sS'ro'
p1036
I7978
sS'shania'
p1037
I2938
sS'columbine'
p1038
I7630
sS'pbs'
p1039
I3670
sS'laying'
p1040
I7629
sS'joined'
p1041
I1951
sS'large'
p1042
I1045
sS'sang'
p1043
I7628
sS'small'
p1044
I480
sS'humongous'
p1045
I7627
sS'discriminates'
p1046
I7626
sS'sync'
p1047
I5444
sS'past'
p1048
I555
sS'premature'
p1049
I7625
sS'pass'
p1050
I1471
sS'healer'
p1051
I4459
sS'investment'
p1052
I4458
sS'handicapped'
p1053
I6897
sS'richard'
p1054
I3254
sS'clock'
p1055
I4457
sS'section'
p1056
I1291
sS'undecided'
p1057
I7623
sS'dracula'
p1058
I7976
sS'nurse'
p1059
I2625
sS'method'
p1060
I3252
sS'revealing'
p1061
I7622
sS'full'
p1062
I739
sS'escaping'
p1063
I7621
sS'gregory'
p1064
I3523
sS'diapers'
p1065
I7620
sS'hours'
p1066
I475
sS'november'
p1067
I1217
sS'introductory'
p1068
I7619
sS'experience'
p1069
I648
sS'prior'
p1070
I2215
sS'healthier'
p1071
I4455
sS'social'
p1072
I1739
sS'action'
p1073
I1044
sS'luck'
p1074
I1670
sS'followed'
p1075
I4454
sS'marriages'
p1076
I4453
sS'indoors'
p1077
I1738
sS'pulls'
p1078
I7618
sS'gosh'
p1079
I443
sS'pearl'
p1080
I2624
sS'morn'
p1081
I7617
sS'gorgeous'
p1082
I2623
sS'more'
p1083
I110
sS'doot'
p1084
I4452
sS'door'
p1085
I881
sS'initiated'
p1086
I7616
sS'company'
p1087
I340
sS'corrected'
p1088
I5328
sS"bank's"
p1089
I7614
sS'tested'
p1090
I1950
sS'jealousies'
p1091
I7613
sS'keeping'
p1092
I1043
sS'meat-packing'
p1093
I5758
sS'science'
p1094
I1042
sS'mall'
p1095
I1153
sS'sent'
p1096
I879
sS'learn'
p1097
I451
sS'knocked'
p1098
I4450
sS'male'
p1099
I1372
sS'dodi'
p1100
I5508
sS'beautiful'
p1101
I880
sS'neglected'
p1102
I3251
sS'staten'
p1103
I4449
sS'accept'
p1104
I1737
sS'states'
p1105
I647
sS'sense'
p1106
I561
sS'dress'
p1107
I3250
sS'lucked'
p1108
I4447
sS'huge'
p1109
I768
sS'wirele'
p1110
I7612
sS'hugh'
p1111
I7611
sS'shipped'
p1112
I4586
sS'dismissed'
p1113
I7610
sS'creature'
p1114
I4446
sS'plant'
p1115
I1585
sS'plans'
p1116
I1514
sS'countryside'
p1117
I7608
sS'notre'
p1118
I7607
sS'sympathize'
p1119
I7606
sS'plane'
p1120
I1736
sS'director'
p1121
I7586
sS'backyard'
p1122
I3249
sS'appealed'
p1123
I4445
sS'refuse'
p1124
I2622
sS'symbolize'
p1125
I7970
sS'register'
p1126
I1584
sS'rowdy'
p1127
I7605
sS'volleyball'
p1128
I4444
sS'ranned'
p1129
I4443
sS'geographic'
p1130
I4442
sS'pans'
p1131
I7604
sS'reminded'
p1132
I3540
sS'televise'
p1133
I7603
sS'distortion'
p1134
I3555
sS'attitude'
p1135
I1948
sS'paper'
p1136
I588
sS'signs'
p1137
I4441
sS'broadway'
p1138
I7601
sS'its'
p1139
I530
sS'roots'
p1140
I4440
sS'travelling'
p1141
I7600
sS'madeleine'
p1142
I4691
sS'ally'
p1143
I7599
sS'skipped'
p1144
I4439
sS'entire'
p1145
I1735
sS'snowball'
p1146
I4438
sS'skipper'
p1147
I7598
sS'sucked'
p1148
I4437
sS'shopped'
p1149
I5235
sS'everytime'
p1150
I1947
sS'always'
p1151
I173
sS'nauseous'
p1152
I7596
sS'courses'
p1153
I2308
sS'found'
p1154
I518
sS'reactions'
p1155
I7594
sS'upstairs'
p1156
I1583
sS"they've"
p1157
I1290
sS'clockwork'
p1158
I7593
sS'operation'
p1159
I2695
sS'murders'
p1160
I7216
sS'really'
p1161
I47
sS'missed'
p1162
I1371
sS'blacks'
p1163
I2770
sS'mattered'
p1164
I7591
sS'research'
p1165
I1095
sS'inquirer'
p1166
I4436
sS'highway'
p1167
I1946
sS'uh-huh'
p1168
I79
sS'five-thirty'
p1169
I7590
sS'acdc'
p1170
I6889
sS'belief'
p1171
I3247
sS'sparked'
p1172
I7589
sS'ness'
p1173
I4807
sS'qualify'
p1174
I4435
sS'conditioning'
p1175
I7587
sS'imagine'
p1176
I660
sS'producers'
p1177
I7082
sS'owners'
p1178
I1370
sS'whatchamacallit'
p1179
I7962
sS"woman's"
p1180
I4434
sS'positioning'
p1181
I7585
sS'inv-'
p1182
I7584
sS'elective'
p1183
I1945
sS'w'
p1184
I266
sS'joey'
p1185
I7583
sS"do's"
p1186
I7582
sS'pronunciations'
p1187
I7581
sS'major'
p1188
I646
sS'wilder'
p1189
I3246
sS'dumbfounded'
p1190
I6332
sS'number'
p1191
I474
sS'ethereal'
p1192
I7580
sS'differ'
p1193
I5012
sS'heads'
p1194
I2620
sS'introduction'
p1195
I7579
sS'swipe'
p1196
I3245
sS'threatening'
p1197
I7578
sS"corestate's"
p1198
I7577
sS'calculations'
p1199
I4997
sS'jen'
p1200
I4433
sS"ricky's"
p1201
I7576
sS"paul's"
p1202
I7575
sS'relationship'
p1203
I1369
sS'interviewed'
p1204
I2619
sS'immediate'
p1205
I4432
sS'appreciation'
p1206
I2618
sS'typhoon'
p1207
I7574
sS'zeppelin'
p1208
I4431
sS'focusing'
p1209
I2212
sS'grace'
p1210
I7573
sS'walk-off'
p1211
I7572
sS'ave.'
p1212
I7571
sS"hell's"
p1213
I4430
sS'condolences'
p1214
I4429
sS'pamela'
p1215
I3924
sS'marriage'
p1216
I1368
sS'fastpoint'
p1217
I7569
sS'remembers'
p1218
I7568
sS'basically'
p1219
I272
sS'fights'
p1220
I7567
sS'beforehand'
p1221
I3461
sS'pedestrian'
p1222
I3243
sS'pla-'
p1223
I7565
sS'sell'
p1224
I972
sS'dau'
p1225
I7564
sS'pajamas'
p1226
I7563
sS'self'
p1227
I1733
sS'jeopardize'
p1228
I4428
sS'also'
p1229
I226
sS'recognizing'
p1230
I7562
sS'play'
p1231
I367
sS'singles'
p1232
I2733
sS'brooklyn'
p1233
I4427
sS'plan'
p1234
I940
sS'spectaguard'
p1235
I7560
sS'accepting'
p1236
I7559
sS'exa'
p1237
I2211
sS'sometimes'
p1238
I290
sS'cover'
p1239
I3242
sS'artistic'
p1240
I7558
sS'fashions'
p1241
I7557
sS'barrel'
p1242
I4853
sS'dragged'
p1243
I4850
sS'ugh'
p1244
I2617
sS'golf'
p1245
I3241
sS'gold'
p1246
I4424
sS'cruises'
p1247
I7556
sS'session'
p1248
I4423
sS'parochial'
p1249
I2724
sS'fianc'
p1250
I4422
sS'overwhelmed'
p1251
I3240
sS'impact'
p1252
I2616
sS'wraps'
p1253
I3418
sS'writes'
p1254
I4421
sS'writer'
p1255
I2615
sS'failed'
p1256
I7553
sS'wayne'
p1257
I3239
sS'condom'
p1258
I7552
sS'factor'
p1259
I1944
sS'spoiler'
p1260
I6328
sS'dependent'
p1261
I3238
sS'sunny'
p1262
I3237
sS"they'd"
p1263
I3236
sS'ninth'
p1264
I3235
sS'closely'
p1265
I3234
sS'enemy'
p1266
I7551
sS'knolls'
p1267
I1152
sS'sleeve'
p1268
I7550
sS'cry'
p1269
I2210
sS'banking'
p1270
I4420
sS'cra'
p1271
I7549
sS'cre'
p1272
I7548
sS'river'
p1273
I2613
sS'approaching'
p1274
I4766
sS'insane'
p1275
I4419
sS'set'
p1276
I560
sS'retar'
p1277
I4762
sS'appalachian'
p1278
I7546
sS'sex'
p1279
I939
sS'see'
p1280
I86
sS'sea'
p1281
I2612
sS'project'
p1282
I2631
sS"maggie's"
p1283
I7544
sS'spirits'
p1284
I1094
sS'movie'
p1285
I260
sS'currently'
p1286
I1732
sS'demons'
p1287
I7543
sS'nope'
p1288
I1216
sS'monsters'
p1289
I7542
sS'europe'
p1290
I1792
sS'multi-task'
p1291
I7541
sS'targeted'
p1292
I4418
sS'incident'
p1293
I2611
sS'interface'
p1294
I7540
sS'se-'
p1295
I7539
sS'outlying'
p1296
I7538
sS'prospects'
p1297
I7537
sS'tangible'
p1298
I4417
sS'thou'
p1299
I4692
sS'corestate'
p1300
I7535
sS'barely'
p1301
I3232
sS'bachelor'
p1302
I3771
sS'connection'
p1303
I3231
sS'amoeba'
p1304
I7534
sS'retarded'
p1305
I4415
sS'poverty'
p1306
I4374
sS'whole'
p1307
I223
sS'patty'
p1308
I1943
sS'load'
p1309
I7533
sS'volcanic'
p1310
I7532
sS'majesty'
p1311
I7531
sS'drunk'
p1312
I1093
sS'acted'
p1313
I3230
sS'northeastern'
p1314
I7530
sS'allegiance'
p1315
I2610
sS'community'
p1316
I762
sS'coincidence'
p1317
I3229
sS'))'
p1318
I442
sS'agents'
p1319
I3228
sS'church'
p1320
I1041
sS'townhouse'
p1321
I3227
sS'sammy'
p1322
I7529
sS'devil'
p1323
I7528
sS'publishing'
p1324
I7527
sS'monthly'
p1325
I1582
sS'hitting'
p1326
I3226
sS'suburbs'
p1327
I1470
sS'nugent'
p1328
I7526
sS'firm'
p1329
I3225
sS'raced'
p1330
I7525
sS'sobriety'
p1331
I7524
sS'fire'
p1332
I1581
sS"what's"
p1333
I363
sS'fund'
p1334
I3224
sS'racer'
p1335
I7523
sS'races'
p1336
I4414
sS'sleeves'
p1337
I7522
sS'representative'
p1338
I4413
sS'imagina-'
p1339
I5285
sS'towns'
p1340
I1366
sS'educ'
p1341
I7520
sS'handling'
p1342
I3223
sS'caged'
p1343
I7519
sS'straight'
p1344
I1299
sS'budget'
p1345
I7517
sS'admire'
p1346
I1151
sS'receive'
p1347
I738
sS'pressed'
p1348
I4411
sS'kissing'
p1349
I7516
sS'secluded'
p1350
I4410
sS'pound'
p1351
I3222
sS'hoping'
p1352
I1040
sS'backing'
p1353
I4409
sS'calculator'
p1354
I4408
sS'silence'
p1355
I6633
sS'pawtucket'
p1356
I7515
sS'chase'
p1357
I2209
sS'funny'
p1358
I295
sS'barney'
p1359
I4407
sS'barnes'
p1360
I7514
sS'elevated'
p1361
I3221
sS'minu'
p1362
I6323
sS'read'
p1363
I366
sS'virtually'
p1364
I7513
sS'bethesda'
p1365
I7512
sS"money's"
p1366
I4405
sS'flooded'
p1367
I7511
sS'upbringing'
p1368
I3220
sS'stacy'
p1369
I7510
sS'levels'
p1370
I3219
sS'air-conditioning'
p1371
I7509
sS'necessity'
p1372
I4404
sS'infamous'
p1373
I7508
sS'recent'
p1374
I2609
sS'amy'
p1375
I1547
sS'picky'
p1376
I7506
sS'picks'
p1377
I3320
sS'person'
p1378
I187
sS'sixtieth'
p1379
I7504
sS'kelly'
p1380
I3218
sS'twenty-six'
p1381
I5740
sS'</s>'
p1382
I3
sS'sandal'
p1383
I7503
sS'conclusions'
p1384
I7502
sS'rollins'
p1385
I7851
sS'rangers'
p1386
I3217
sS'parents'
p1387
I320
sS'location'
p1388
I2208
sS'sydney'
p1389
I2608
sS'comprehensible'
p1390
I7501
sS'input'
p1391
I7500
sS'surprised'
p1392
I1580
sS'niece'
p1393
I2477
sS'australia'
p1394
I7499
sS'victims'
p1395
I7498
sS'format'
p1396
I7497
sS'couple'
p1397
I235
sS'instructors'
p1398
I4403
sS'shitty'
p1399
I7496
sS'suffering'
p1400
I4402
sS'buyout'
p1401
I7495
sS'projects'
p1402
I4401
sS'formal'
p1403
I4400
sS'd'
p1404
I487
sS'communications'
p1405
I1730
sS'individuals'
p1406
I3215
sS'alexandra'
p1407
I3214
sS'names'
p1408
I2394
sS'partying'
p1409
I4398
sS'thems-'
p1410
I7494
sS'spring'
p1411
I1941
sS'palm'
p1412
I3213
sS'sight'
p1413
I2207
sS'curious'
p1414
I1579
sS'sprint'
p1415
I2206
sS'mummy'
p1416
I3212
sS'novelty'
p1417
I7493
sS'religion'
p1418
I1215
sS'behave'
p1419
I7492
sS'<go>'
p1420
I2
sS"russia's"
p1421
I4397
sS'dating'
p1422
I2205
sS"machine's"
p1423
I7491
sS'temple'
p1424
I820
sS"son's"
p1425
I1940
sS'be'
p1426
I43
sS'mystique'
p1427
I7490
sS'ba'
p1428
I2607
sS'redoing'
p1429
I7489
sS'odor'
p1430
I7488
sS'bo'
p1431
I7487
sS'agreement'
p1432
I4396
sS'bu'
p1433
I2204
sS'nowhere'
p1434
I1939
sS'santa'
p1435
I3211
sS'santo'
p1436
I7486
sS'by'
p1437
I194
sS'thirty-fourth'
p1438
I4395
sS'anything'
p1439
I155
sS'schmay'
p1440
I3210
sS'sacrament'
p1441
I7484
sS'deserves'
p1442
I7483
sS'stuart'
p1443
I7482
sS'clinton'
p1444
I2606
sS'colorado'
p1445
I2203
sS'garbage'
p1446
I1729
sS'terrorists'
p1447
I7481
sS'hometown'
p1448
I7480
sS'into'
p1449
I145
sS'integral'
p1450
I4394
sS'appropriate'
p1451
I4393
sS'middleton'
p1452
I7479
sS'primarily'
p1453
I7478
sS'span'
p1454
I7477
sS'sneaky'
p1455
I7476
sS'spending'
p1456
I1214
sS'apartments'
p1457
I3087
sS'specifically'
p1458
I1938
sS'custom'
p1459
I2605
sS'occupy'
p1460
I7475
sS'okey-dokey'
p1461
I7474
sS'suit'
p1462
I3209
sS'spas'
p1463
I7473
sS'elsewhere'
p1464
I2604
sS'hawaiian'
p1465
I7472
sS'poster'
p1466
I7471
sS'relaxed'
p1467
I3207
sS'pastor'
p1468
I7470
sS'atlantic'
p1469
I1469
sS'line'
p1470
I537
sS'posted'
p1471
I4392
sS'fades'
p1472
I7469
sS'nieces'
p1473
I3206
sS'somedays'
p1474
I7468
sS'up'
p1475
I72
sS'us'
p1476
I165
sS'um'
p1477
I29
sS'paired'
p1478
I4503
sS'slander'
p1479
I7466
sS'un'
p1480
I2201
sS'uh'
p1481
I26
sS'mature'
p1482
I4391
sS'continuously'
p1483
I7465
sS'consumed'
p1484
I4390
sS'supervisor'
p1485
I3205
sS'labrador'
p1486
I7464
sS'raging'
p1487
I7463
sS'nighttime'
p1488
I7462
sS'unsafe'
p1489
I7461
sS'haunt'
p1490
I7460
sS'e-mails'
p1491
I4389
sS'diverse'
p1492
I2603
sS'chat'
p1493
I2602
sS'thugs'
p1494
I7459
sS'fixing'
p1495
I4388
sS'scrape'
p1496
I6333
sS'points'
p1497
I1336
sS'actors'
p1498
I3204
sS'potion'
p1499
I7457
sS'sided'
p1500
I7456
sS'bussing'
p1501
I7455
sS'meals'
p1502
I4387
sS'ago'
p1503
I275
sS'hells'
p1504
I7454
sS'land'
p1505
I1468
sS'valuables'
p1506
I7453
sS'age'
p1507
I676
sS'barkley'
p1508
I4386
sS'walked'
p1509
I1365
sS'consumes'
p1510
I7452
sS'transient'
p1511
I5730
sS'retardation'
p1512
I7451
sS'fresh'
p1513
I3203
sS'having'
p1514
I330
sS'hampton'
p1515
I2601
sS'amish'
p1516
I4467
sS'partial'
p1517
I7450
sS'scratch'
p1518
I7449
sS'broaden'
p1519
I4385
sS'enjoyable'
p1520
I2599
sS'stops'
p1521
I2777
sS'prim'
p1522
I4384
sS'centers'
p1523
I2200
sS'seemed'
p1524
I1578
sS'cheapy'
p1525
I7448
sS'concerned'
p1526
I1150
sS'bixby'
p1527
I4383
sS'young'
p1528
I441
sS'send'
p1529
I606
sS'dislike'
p1530
I7447
sS'tequila'
p1531
I7446
sS'resources'
p1532
I2214
sS'stocked'
p1533
I7445
sS'garden'
p1534
I1728
sS'dissents'
p1535
I7444
sS'jist'
p1536
I7443
sS'mixing'
p1537
I7442
sS'quadrupled'
p1538
I7441
sS'wipe'
p1539
I7440
sS'tri'
p1540
I7439
sS'northwestern'
p1541
I7438
sS'interceptions'
p1542
I7155
sS'magic'
p1543
I4382
sS'harbor'
p1544
I3890
sS'experiencing'
p1545
I7436
sS'marry'
p1546
I7435
sS'montserrat'
p1547
I3202
sS'eve'
p1548
I1213
sS'fewer'
p1549
I7434
sS'try'
p1550
I282
sS'race'
p1551
I1467
sS'bartram'
p1552
I4381
sS'rack'
p1553
I3201
sS'logistics'
p1554
I4380
sS'pledge'
p1555
I2213
sS'thirty-eighth'
p1556
I7432
sS'seventies'
p1557
I4379
sS'mediterranean'
p1558
I7431
sS'video'
p1559
I1037
sS'licenses'
p1560
I4378
sS'wheat'
p1561
I7430
sS'unquote'
p1562
I7429
sS'odd'
p1563
I1364
sS'graduating'
p1564
I2598
sS'index'
p1565
I7428
sS'richmond'
p1566
I3200
sS'indian'
p1567
I7427
sS'bird'
p1568
I4377
sS'scenery'
p1569
I7426
sS'led'
p1570
I4376
sS'lee'
p1571
I2597
sS'leg'
p1572
I4375
sS'punch'
p1573
I7425
sS'len'
p1574
I7424
sS'slogans'
p1575
I7423
sS'let'
p1576
I205
sS'consideration'
p1577
I7422
sS'volkswagen'
p1578
I6867
sS'fifteen'
p1579
I571
sS'physiology'
p1580
I4373
sS'great'
p1581
I218
sS'uneasy'
p1582
I6866
sS'technical'
p1583
I1466
sS'involved'
p1584
I423
sS'titanic'
p1585
I7421
sS'survey'
p1586
I644
sS'popcorn'
p1587
I2596
sS'opinion'
p1588
I675
sS'residents'
p1589
I4372
sS'makes'
p1590
I473
sS'explain'
p1591
I1430
sS'holmes'
p1592
I4371
sS'marc'
p1593
I6046
sS'panicked'
p1594
I7420
sS'slid'
p1595
I7419
sS'assemble'
p1596
I7418
sS'counsels'
p1597
I7417
sS'tools'
p1598
I4370
sS'standing'
p1599
I1363
sS'francis'
p1600
I6864
sS'certificate'
p1601
I4369
sS'illegal'
p1602
I1092
sS'next'
p1603
I319
sS'eleven'
p1604
I937
sS'doubt'
p1605
I1936
sS'beaches'
p1606
I5136
sS'hensfiel'
p1607
I7416
sS'pencil'
p1608
I4368
sS"gore's"
p1609
I7415
sS'jeez'
p1610
I7414
sS'carrying'
p1611
I3198
sS'baby'
p1612
I643
sS'customer'
p1613
I437
sS'balls'
p1614
I4367
sS'animals'
p1615
I7413
sS'this'
p1616
I57
sS'athlete'
p1617
I3208
sS'clients'
p1618
I2595
sS'pour'
p1619
I7411
sS'thin'
p1620
I7410
sS'drill'
p1621
I7409
sS'fulfill'
p1622
I7408
sS'bens'
p1623
I7407
sS'weaker'
p1624
I4366
sS'bent'
p1625
I7406
sS'extraterrestrials'
p1626
I7405
sS'process'
p1627
I1362
sS'lock'
p1628
I4365
sS'loch'
p1629
I7404
sS'purposes'
p1630
I2594
sS'transpired'
p1631
I7403
sS'pieces'
p1632
I7402
sS'high'
p1633
I248
sS'slip'
p1634
I3197
sS'martyr'
p1635
I7401
sS'reynolds'
p1636
I4364
sS'educational'
p1637
I1577
sS'destroying'
p1638
I3196
sS"king's"
p1639
I4363
sS'struggling'
p1640
I6025
sS'bilingual'
p1641
I1576
sS'mysteries'
p1642
I7400
sS'comedy'
p1643
I4362
sS'intelligent'
p1644
I3195
sS'buster'
p1645
I6898
sS'blocks'
p1646
I2198
sS'tied'
p1647
I3194
sS'fits'
p1648
I4361
sS'ties'
p1649
I7399
sS'hawk'
p1650
I7398
sS'racks'
p1651
I4360
sS'realized'
p1652
I2197
sS'manpower'
p1653
I7397
sS'seriou'
p1654
I7396
sS'counter'
p1655
I4359
sS'commodities'
p1656
I7395
sS'acquitted'
p1657
I2593
sS'allow'
p1658
I4358
sS'pyramids'
p1659
I7394
sS'counted'
p1660
I4357
sS'commu'
p1661
I7393
sS'houston'
p1662
I7392
sS'boxing'
p1663
I1522
sS'knotting'
p1664
I7327
sS'move'
p1665
I570
sS'motorcycle'
p1666
I3193
sS"player's"
p1667
I7314
sS"wife's"
p1668
I2196
sS'perfect'
p1669
I908
sS'decay'
p1670
I7388
sS'chosen'
p1671
I7387
sS'lamp'
p1672
I6027
sS'meantime'
p1673
I4356
sS'degrees'
p1674
I1934
sS'communication'
p1675
I7385
sS'hobby'
p1676
I4355
sS'animal'
p1677
I1935
sS'earn'
p1678
I6307
sS'harrisburg'
p1679
I2331
sS'bothering'
p1680
I4354
sS'kiss'
p1681
I4353
sS"owner's"
p1682
I6306
sS'cage'
p1683
I7383
sS'realize'
p1684
I907
sS'scenic'
p1685
I7265
sS'sniffing'
p1686
I7381
sS'merge'
p1687
I7262
sS'denzel'
p1688
I4352
sS'betty'
p1689
I7379
sS'truth'
p1690
I848
sS'shortage'
p1691
I7260
sS'rising'
p1692
I5126
sS"grandmother's"
p1693
I4351
sS'glasses'
p1694
I7377
sS'mets'
p1695
I7376
sS'shower'
p1696
I7545
sS'doing'
p1697
I126
sS'cardboards'
p1698
I7375
sS'elementary'
p1699
I1699
sS'books'
p1700
I517
sS'thirteen'
p1701
I1465
sS'tenth'
p1702
I1726
sS'shannon'
p1703
I3191
sS'mind-set'
p1704
I7374
sS'borderline'
p1705
I3190
sS'yous'
p1706
I6856
sS'cess'
p1707
I7373
sS'discu'
p1708
I7372
sS'shut'
p1709
I1933
sS'interactions'
p1710
I7371
sS'inhaling'
p1711
I7370
sS'release'
p1712
I7369
sS'surely'
p1713
I4350
sS'frigging'
p1714
I2195
sS'embarrass'
p1715
I7368
sS'log'
p1716
I2592
sS'scary'
p1717
I819
sS'fertility'
p1718
I6302
sS'transferable'
p1719
I7366
sS'could'
p1720
I114
sS'david'
p1721
I3189
sS'chilly'
p1722
I3188
sS'length'
p1723
I7365
sS'davis'
p1724
I7364
sS'hussein'
p1725
I7363
sS'scare'
p1726
I2194
sS'blown'
p1727
I7362
sS'scene'
p1728
I1289
sS'owned'
p1729
I2591
sS'jesus'
p1730
I1932
sS'muhammad'
p1731
I7361
sS'owner'
p1732
I2590
sS'leasing'
p1733
I7360
sS'blows'
p1734
I7359
sS'scent'
p1735
I7358
sS'prank'
p1736
I7357
sS'reference'
p1737
I3983
sS'start'
p1738
I304
sS'ordering'
p1739
I7149
sS'system'
p1740
I587
sS'upstate'
p1741
I7355
sS'wilkes-barre'
p1742
I4348
sS'decorations'
p1743
I7354
sS'bartend'
p1744
I4347
sS'spaceship'
p1745
I3187
sS'painful'
p1746
I7353
sS'interests'
p1747
I1931
sS'co-op'
p1748
I7352
sS'vigorous'
p1749
I7351
sS'shorts'
p1750
I7350
sS'beatings'
p1751
I7349
sS'depressing'
p1752
I7348
sS'burlesque'
p1753
I7347
sS'steel'
p1754
I1725
sS'colleagues'
p1755
I7346
sS'valley'
p1756
I789
sS'bother'
p1757
I906
sS'reacted'
p1758
I7345
sS'gaye'
p1759
I4346
sS'roberts'
p1760
I2589
sS'appealing'
p1761
I7344
sS'malpractice'
p1762
I7343
sS'collecting'
p1763
I4344
sS'accusing'
p1764
I7342
sS'deodorant'
p1765
I7341
sS'spelled'
p1766
I7340
sS'tonight'
p1767
I721
sS'defending'
p1768
I4343
sS'fourteenth'
p1769
I7339
sS'grunge'
p1770
I5120
sS'blockbuster'
p1771
I1930
sS'clearly'
p1772
I7338
sS'psyche'
p1773
I6609
sS'studying'
p1774
I998
sS'lasalle'
p1775
I4600
sS'awed'
p1776
I7336
sS'mills'
p1777
I2193
sS'financials'
p1778
I7335
sS'soap'
p1779
I3186
sS'lancaster'
p1780
I2588
sS'do-able'
p1781
I7334
sS'fanaticals'
p1782
I7332
sS'socializing'
p1783
I7331
sS'stronger'
p1784
I3125
sS'thanksgiving'
p1785
I1575
sS'face'
p1786
I1090
sS"you'll"
p1787
I847
sS'mechanical'
p1788
I7329
sS'painting'
p1789
I4341
sS'fact'
p1790
I450
sS'atmosphere'
p1791
I2192
sS'terminate'
p1792
I7328
sS'bring'
p1793
I720
sS'bedroom'
p1794
I1929
sS'rough'
p1795
I1574
sS'producer'
p1796
I7390
sS'jaw'
p1797
I7326
sS'should'
p1798
I111
sS'jan'
p1799
I6994
sS'jam'
p1800
I3185
sS'tape'
p1801
I2191
sS'riding'
p1802
I2587
sS'secretaries'
p1803
I7324
sS'hope'
p1804
I449
sS'meant'
p1805
I1361
sS'insight'
p1806
I7323
sS'handle'
p1807
I1148
sS'listened'
p1808
I2190
sS'means'
p1809
I755
sS'familiar'
p1810
I719
sS'lucky'
p1811
I600
sS'sinus'
p1812
I7321
sS'smash'
p1813
I7320
sS'h'
p1814
I576
sS'undergrad'
p1815
I3184
sS'rapper'
p1816
I3634
sS'neons'
p1817
I4340
sS'ire'
p1818
I7927
sS'whoohoo'
p1819
I7318
sS'star-'
p1820
I6850
sS'stuff'
p1821
I116
sS'ohio'
p1822
I7317
sS'directs'
p1823
I7316
sS'frame'
p1824
I2586
sS'packet'
p1825
I7315
sS'packed'
p1826
I4339
sS'soothing'
p1827
I7163
sS'lyon'
p1828
I4338
sS'wire'
p1829
I3181
sS'nationwide'
p1830
I1601
sS'insulting'
p1831
I3180
sS'vms'
p1832
I7389
sS'felony'
p1833
I4567
sS'pistol'
p1834
I7313
sS'email'
p1835
I737
sS'retentive'
p1836
I7312
sS'ends'
p1837
I1089
sS'explosive'
p1838
I7311
sS'scrolls'
p1839
I7310
sS'troubleshoots'
p1840
I7309
sS'marty'
p1841
I7308
sS'restrictions'
p1842
I7307
sS'figured'
p1843
I659
sS'drug'
p1844
I760
sS'figures'
p1845
I1928
sS'tsg'
p1846
I7306
sS'eth'
p1847
I7305
sS'ch'
p1848
I1137
sS'co'
p1849
I2585
sS'ca'
p1850
I1464
sS'ce'
p1851
I7303
sS'cd'
p1852
I788
sS'classicals'
p1853
I7302
sS'cs'
p1854
I7301
sS'cr'
p1855
I4335
sS'allocated'
p1856
I7300
sS'labor'
p1857
I2584
sS'undergraduate'
p1858
I4334
sS'rougher'
p1859
I7299
sS'cu'
p1860
I7298
sS"whatever's"
p1861
I4333
sS'powered'
p1862
I7297
sS'catholicism'
p1863
I4332
sS'elmer'
p1864
I7296
sS'rhode'
p1865
I3179
sS'drank'
p1866
I2189
sS'waste'
p1867
I1724
sS'louisiana'
p1868
I7295
sS'c-'
p1869
I4331
sS'commutes'
p1870
I7294
sS'planner'
p1871
I4330
sS'graphics'
p1872
I4329
sS'atlanta'
p1873
I7293
sS'spain'
p1874
I4328
sS'deductible'
p1875
I4327
sS'ph-'
p1876
I6953
sS'omni'
p1877
I1288
sS'vi'
p1878
I7291
sS'surprisingly'
p1879
I6792
sS'hardware'
p1880
I7289
sS'sits'
p1881
I4326
sS'cust'
p1882
I5064
sS'brockovich'
p1883
I7287
sS'romance'
p1884
I3178
sS'digging'
p1885
I3177
sS'terrorism'
p1886
I7286
sS'ball'
p1887
I1287
sS'pho'
p1888
I4325
sS'bald'
p1889
I3666
sS'upon'
p1890
I1463
sS'phd'
p1891
I7285
sS'phy'
p1892
I7284
sS'dust'
p1893
I4323
sS'identity'
p1894
I7283
sS'discounted'
p1895
I4322
sS'forty-eight'
p1896
I4321
sS"steward's"
p1897
I7282
sS'patterns'
p1898
I7281
sS'diversify'
p1899
I7280
sS'drawing'
p1900
I7279
sS'bananas'
p1901
I7278
sS'less'
p1902
I569
sS'moments'
p1903
I4320
sS'rooms'
p1904
I3176
sS'paul'
p1905
I7277
sS'glue'
p1906
I7276
sS'web'
p1907
I971
sS'wei'
p1908
I4319
sS'toyed'
p1909
I7275
sS'wes'
p1910
I7274
sS'wer'
p1911
I7273
sS'wet'
p1912
I1877
sS'advanced'
p1913
I7271
sS'wimpy'
p1914
I7270
sS'government'
p1915
I970
sS'checking'
p1916
I4318
sS'sterner'
p1917
I7269
sS'bartending'
p1918
I5703
sS'haul'
p1919
I7267
sS'cedar'
p1920
I929
sS'desk'
p1921
I1035
sS'fools'
p1922
I6837
sS'mhm'
p1923
I44
sS'chairs'
p1924
I7266
sS'garage'
p1925
I1927
sS'undertaking'
p1926
I7382
sS'nerves'
p1927
I4097
sS'amendment'
p1928
I7264
sS'choosing'
p1929
I4317
sS'recognition'
p1930
I2057
sS'literally'
p1931
I2583
sS'avoid'
p1932
I4500
sS'salaries'
p1933
I1926
sS'does'
p1934
I136
sS'passion'
p1935
I4316
sS'biology'
p1936
I3175
sS'schedule'
p1937
I1723
sS'pressure'
p1938
I1462
sS'imaginary'
p1939
I7259
sS'loans'
p1940
I2188
sS'counties'
p1941
I7258
sS'stage'
p1942
I4315
sS'sister'
p1943
I642
sS'lifestyle'
p1944
I2582
sS'asks'
p1945
I2989
sS"donald's"
p1946
I4314
sS'angeles'
p1947
I2581
sS'concession'
p1948
I7257
sS'software'
p1949
I3032
sS'letters'
p1950
I2186
sS'lung'
p1951
I7255
sS'roads'
p1952
I4313
sS'charities'
p1953
I4312
sS'mere'
p1954
I4311
sS'terminated'
p1955
I3174
sS'unfor'
p1956
I7254
sS'housing'
p1957
I7253
sS'snyder'
p1958
I3173
sS'kooky'
p1959
I7252
sS'bump'
p1960
I7251
sS'crabbing'
p1961
I7250
sS'naturally'
p1962
I3172
sS'function'
p1963
I7249
sS'construction'
p1964
I1722
sS'count'
p1965
I1925
sS'baptist'
p1966
I7248
sS'places'
p1967
I460
sS'society'
p1968
I1091
sS'official'
p1969
I4310
sS'placed'
p1970
I4309
sS'convince'
p1971
I7246
sS'faraway'
p1972
I7672
sS'problem'
p1973
I388
sS'thirty-nine'
p1974
I7244
sS'nurses'
p1975
I4308
sS'recognize'
p1976
I1573
sS'ins'
p1977
I4307
sS'sweatshirt'
p1978
I2882
sS'jesse'
p1979
I4305
sS'compared'
p1980
I2580
sS'variety'
p1981
I2579
sS'trials'
p1982
I1461
sS'lately'
p1983
I1088
sS'details'
p1984
I4304
sS'francisco'
p1985
I3171
sS'monday'
p1986
I1721
sS'marlboro'
p1987
I7243
sS'footprints'
p1988
I7242
sS'chance'
p1989
I787
sS'mastermind'
p1990
I7241
sS'dolphins'
p1991
I7240
sS'ghost'
p1992
I1924
sS'rule'
p1993
I3170
sS'lift'
p1994
I3655
sS'compete'
p1995
I7239
sS'pension'
p1996
I7238
sS"ridge's"
p1997
I7237
sS'rural'
p1998
I3168
sS'defend'
p1999
I2551
sS'saves'
p2000
I7235
sS'nursery'
p2001
I7234
sS'controversial'
p2002
I3167
sS'oldest'
p2003
I1147
sS'saved'
p2004
I2185
sS'stinks'
p2005
I3141
sS'voter'
p2006
I7232
sS'bike'
p2007
I4301
sS'worth'
p2008
I817
sS'blanket'
p2009
I7231
sS"women's"
p2010
I2578
sS"driver's"
p2011
I7230
sS'jenkintown'
p2012
I7229
sS'lecture'
p2013
I3166
sS'sickos'
p2014
I7228
sS'tickets'
p2015
I936
sS"we'll"
p2016
I1286
sS'investigator'
p2017
I7227
sS'humidity'
p2018
I3165
sS'mid-west'
p2019
I4300
sS'casinos'
p2020
I3164
sS'announced'
p2021
I2879
sS'poppy'
p2022
I7226
sS'jamaica'
p2023
I1720
sS'preached'
p2024
I7225
sS'phones'
p2025
I403
sS'horn'
p2026
I2576
sS"asr's"
p2027
I7224
sS'follow'
p2028
I969
sS'phoned'
p2029
I5565
sS'established'
p2030
I7222
sS'unpopulated'
p2031
I7221
sS'settlement'
p2032
I5087
sS'tissue'
p2033
I7086
sS'ugly'
p2034
I2184
sS'dapallo'
p2035
I7220
sS'above'
p2036
I2183
sS'toll'
p2037
I3163
sS'neat'
p2038
I383
sS'told'
p2039
I318
sS'sixty-eight'
p2040
I7219
sS'bi'
p2041
I7218
sS'whitehall'
p2042
I3162
sS'wrapping'
p2043
I4299
sS'protection'
p2044
I4298
sS'celebration'
p2045
I4297
sS'stresses'
p2046
I7217
sS'watchers'
p2047
I6280
sS'daughter'
p2048
I472
sS'items'
p2049
I3161
sS'employees'
p2050
I604
sS'foolishness'
p2051
I7214
sS'adopt'
p2052
I7213
sS'smoke'
p2053
I431
sS'stressed'
p2054
I2575
sS'secure'
p2055
I4296
sS'graders'
p2056
I4295
sS'highly'
p2057
I1923
sS'bro'
p2058
I7212
sS'opportunities'
p2059
I1392
sS'bri'
p2060
I4294
sS'romantically'
p2061
I7211
sS'total'
p2062
I1285
sS'bra'
p2063
I7210
sS'plot'
p2064
I1425
sS'plop'
p2065
I7208
sS'sweater'
p2066
I7207
sS'cana'
p2067
I2817
sS"world's"
p2068
I2439
sS'well-trained'
p2069
I7204
sS'comcast'
p2070
I1921
sS'knoll'
p2071
I3160
sS'maplewood'
p2072
I4293
sS'recei'
p2073
I7203
sS'aware'
p2074
I2977
sS'enjo'
p2075
I7201
sS'cyrex'
p2076
I7200
sS'springer'
p2077
I7199
sS'word'
p2078
I1146
sS'wore'
p2079
I4292
sS'divorced'
p2080
I1261
sS'work'
p2081
I78
sS'worn'
p2082
I7198
sS'divorces'
p2083
I7196
sS'tnc'
p2084
I7195
sS'gloria'
p2085
I7194
sS'il'
p2086
I2468
sS'indicated'
p2087
I7193
sS'sixty-four'
p2088
I7192
sS'fronting'
p2089
I7191
sS'violin'
p2090
I7910
sS'indifferent'
p2091
I7189
sS'recovery'
p2092
I7188
sS'provide'
p2093
I7187
sS'egyptian'
p2094
I2768
sS'nuts'
p2095
I1360
sS'cures'
p2096
I3746
sS'morbid'
p2097
I7186
sS'rookie'
p2098
I4291
sS'boats'
p2099
I5303
sS'disappoint'
p2100
I4290
sS'ordinary'
p2101
I4289
sS'beach'
p2102
I1087
sS'gamble'
p2103
I7185
sS'pizza'
p2104
I7184
sS'ladder'
p2105
I7183
sS'after'
p2106
I257
sS'lab'
p2107
I7182
sS'lax'
p2108
I7181
sS'lay'
p2109
I4288
sS'suing'
p2110
I7180
sS'law'
p2111
I935
sS'lap'
p2112
I1460
sS'lar'
p2113
I7179
sS'las'
p2114
I1212
sS'alienate'
p2115
I7178
sS'appreciate'
p2116
I1571
sS'backwoods'
p2117
I3909
sS'greek'
p2118
I4287
sS'green'
p2119
I2573
sS'south'
p2120
I575
sS'fan'
p2121
I682
sS"casmen's"
p2122
I7176
sS'order'
p2123
I997
sS'greed'
p2124
I7175
sS'salon'
p2125
I7174
sS'office'
p2126
I466
sS'devote'
p2127
I4286
sS'muffin'
p2128
I7173
sS'satisfied'
p2129
I3159
sS'deducted'
p2130
I7172
sS'japan'
p2131
I3158
sS'mayor'
p2132
I1919
sS'bombing'
p2133
I7171
sS'somewhere'
p2134
I545
sS'recreational'
p2135
I1918
sS'air-conditioned'
p2136
I7170
sS'production'
p2137
I4285
sS'extracur'
p2138
I7169
sS'carton'
p2139
I7168
sS'poconos'
p2140
I805
sS'then'
p2141
I68
sS'them'
p2142
I80
sS'affected'
p2143
I2572
sS'jerking'
p2144
I7166
sS'safe'
p2145
I759
sS'stuttering'
p2146
I7165
sS'break'
p2147
I718
sS'band'
p2148
I3882
sS'roommate'
p2149
I2433
sS'googobs'
p2150
I4283
sS'they'
p2151
I19
sS'strategic'
p2152
I5682
sS'ther'
p2153
I4282
sS'bank'
p2154
I2181
sS'bread'
p2155
I7162
sS'backgrounds'
p2156
I2571
sS'l'
p2157
I717
sS'rocks'
p2158
I7161
sS'reasonable'
p2159
I1917
sS'flyers'
p2160
I1719
sS'lifted'
p2161
I7160
sS'crimes'
p2162
I2570
sS'nigerian'
p2163
I7159
sS'hosted'
p2164
I4281
sS'slew'
p2165
I7158
sS"smith's"
p2166
I7157
sS'network'
p2167
I1086
sS'homelife'
p2168
I7156
sS'dialects'
p2169
I3157
sS'cameras'
p2170
I3156
sS'hooked'
p2171
I996
sS'forty'
p2172
I492
sS'trainers'
p2173
I4280
sS'braces'
p2174
I5953
sS'medicine'
p2175
I2180
sS'forth'
p2176
I877
sS'sliding'
p2177
I7154
sS'qualifications'
p2178
I7153
sS'booting'
p2179
I7152
sS'standard'
p2180
I1916
sS'campaigns'
p2181
I4279
sS'techni'
p2182
I7151
sS"people's"
p2183
I1144
sS'renee'
p2184
I4278
sS'recovering'
p2185
I7150
sS'created'
p2186
I2569
sS'creates'
p2187
I3155
sS'festival'
p2188
I7356
sS'guesswork'
p2189
I7148
sS'organize'
p2190
I7147
sS'render'
p2191
I7146
sS'another'
p2192
I264
sS'thick'
p2193
I3624
sS'electronic'
p2194
I7145
sS'carlyle'
p2195
I4276
sS'rated'
p2196
I7144
sS'cambodians'
p2197
I7143
sS'airp'
p2198
I7142
sS'compromise'
p2199
I2568
sS'larissa'
p2200
I6265
sS'airy'
p2201
I4275
sS'purposefully'
p2202
I7141
sS'john'
p2203
I1284
sS'dogs'
p2204
I1718
sS'grandchildren'
p2205
I3154
sS'happily'
p2206
I3153
sS'diversified'
p2207
I7140
sS'rejected'
p2208
I4274
sS'binney'
p2209
I7139
sS'cereal'
p2210
I7138
sS'wasted'
p2211
I4273
sS'toronto'
p2212
I3152
sS'chases'
p2213
I7137
sS'target'
p2214
I4272
sS'magnet'
p2215
I6189
sS'medley'
p2216
I7136
sS'ebay'
p2217
I4271
sS'rebroadcast'
p2218
I7135
sS'guilt'
p2219
I1915
sS'iron'
p2220
I5217
sS'powers'
p2221
I7133
sS'portraits'
p2222
I7132
sS'whene'
p2223
I7131
sS'pessimist'
p2224
I4270
sS'manner'
p2225
I7130
sS's-solve'
p2226
I7129
sS'contents'
p2227
I4269
sS'forced'
p2228
I934
sS'strength'
p2229
I7128
sS'academic'
p2230
I2239
sS'convenient'
p2231
I1359
sS'morristown'
p2232
I2567
sS'subjects'
p2233
I1914
sS'luxury'
p2234
I2566
sS'correlating'
p2235
I7127
sS'completed'
p2236
I5671
sS'xylophone'
p2237
I5670
sS'ericssons'
p2238
I7126
sS'bruce'
p2239
I2565
sS'what'
p2240
I32
sS'extending'
p2241
I3149
sS'scripts'
p2242
I7125
sS'phase'
p2243
I3148
sS'grave'
p2244
I3147
sS'neighborhoods'
p2245
I2563
sS'hanna'
p2246
I4268
sS'alumni'
p2247
I7124
sS'investments'
p2248
I6261
sS'aunt'
p2249
I3146
sS'responded'
p2250
I7123
sS'babero'
p2251
I3777
sS'renting'
p2252
I1717
sS'lewis'
p2253
I4266
sS'non-smokers'
p2254
I5228
sS'anniversary'
p2255
I7122
sS'corp'
p2256
I5358
sS'nephew'
p2257
I2562
sS'enjoyed'
p2258
I968
sS'guidance'
p2259
I4265
sS'adequate'
p2260
I7121
sS'goalie'
p2261
I4264
sS'personality'
p2262
I4263
sS'do'
p2263
I20
sS'masons'
p2264
I7903
sS'dj'
p2265
I3145
sS'di'
p2266
I1211
sS'de'
p2267
I3144
sS'dc'
p2268
I1570
sS'leisure'
p2269
I3759
sS'da'
p2270
I1716
sS'haunted'
p2271
I905
sS'nicely'
p2272
I7380
sS'nasty'
p2273
I3143
sS'du'
p2274
I7119
sS'runs'
p2275
I2561
sS'covering'
p2276
I4261
sS"children's"
p2277
I7118
sS'steal'
p2278
I7117
sS'steam'
p2279
I7116
sS'scrubbed'
p2280
I7115
sS'secretary'
p2281
I1715
sS'w-'
p2282
I4260
sS'depends'
p2283
I471
sS'miserable'
p2284
I2560
sS'techniques'
p2285
I7114
sS'draws'
p2286
I4259
sS'away'
p2287
I280
sS'gentleman'
p2288
I3142
sS'compensation'
p2289
I7113
sS'drawn'
p2290
I4258
sS'encounters'
p2291
I7112
sS'we'
p2292
I39
sS'terms'
p2293
I1458
sS'wa'
p2294
I816
sS'wo'
p2295
I2178
sS'handful'
p2296
I4257
sS'packaged'
p2297
I7111
sS'wi'
p2298
I1714
sS'wh'
p2299
I559
sS'flashes'
p2300
I3739
sS'lerners'
p2301
I7110
sS'packages'
p2302
I4255
sS'kitchen'
p2303
I2559
sS'received'
p2304
I586
sS'climate'
p2305
I4254
sS'cou'
p2306
I7109
sS'cow'
p2307
I7108
sS'ill'
p2308
I4253
sS'coa'
p2309
I7107
sS'receives'
p2310
I7106
sS'receiver'
p2311
I7105
sS'transmission'
p2312
I7437
sS'com'
p2313
I1283
sS'col'
p2314
I4252
sS'coo'
p2315
I7104
sS'con'
p2316
I2177
sS'negotiation'
p2317
I7103
sS'tough'
p2318
I544
sS'relaxation'
p2319
I7102
sS'tons'
p2320
I1457
sS'tony'
p2321
I7101
sS'telecommunications'
p2322
I1569
sS'insiders'
p2323
I7521
sS'speak'
p2324
I543
sS'petty'
p2325
I4251
sS'engines'
p2326
I7100
sS'sachs'
p2327
I7099
sS'refurbished'
p2328
I7098
sS'flexible'
p2329
I7097
sS'leech'
p2330
I7096
sS'families'
p2331
I1357
sS'easy'
p2332
I470
sS'relaxing'
p2333
I4250
sS'concerning'
p2334
I7095
sS'fest'
p2335
I2558
sS'lauderdale'
p2336
I3140
sS'jeopardizes'
p2337
I7094
sS'applied'
p2338
I2557
sS'physician'
p2339
I7093
sS'east'
p2340
I1157
sS'conviction'
p2341
I7092
sS'air'
p2342
I1713
sS'aim'
p2343
I3139
sS'aid'
p2344
I7091
sS'voice'
p2345
I553
sS'mistake'
p2346
I7090
sS'stink'
p2347
I4249
sS'cons'
p2348
I3138
sS'thursdays'
p2349
I7089
sS'allows'
p2350
I4248
sS'sticker'
p2351
I7088
sS'businesses'
p2352
I7566
sS'skipping'
p2353
I7087
sS'broadca'
p2354
I5505
sS'brake'
p2355
I5504
sS'tra'
p2356
I7595
sS'handsets'
p2357
I2048
sS'ops'
p2358
I6255
sS'jerry'
p2359
I7084
sS'th-'
p2360
I4247
sS'plates'
p2361
I3137
sS'saddam'
p2362
I7083
sS'hang'
p2363
I846
sS'evil'
p2364
I1913
sS'hand'
p2365
I716
sS'blamed'
p2366
I7081
sS'prescribed'
p2367
I4246
sS'kept'
p2368
I933
sS'haywire'
p2369
I7080
sS'scenario'
p2370
I3136
sS'driv'
p2371
I5440
sS'thr'
p2372
I5439
sS'tho'
p2373
I1912
sS'contact'
p2374
I4245
sS'thi'
p2375
I1911
sS'the'
p2376
I6
sS'camps'
p2377
I7077
sS'tha'
p2378
I876
sS'unified'
p2379
I4244
sS"she'll"
p2380
I3135
sS'traditions'
p2381
I4243
sS'may-'
p2382
I5424
sS'photo'
p2383
I7075
sS'quotes'
p2384
I2556
sS'thanks'
p2385
I1910
sS'victim'
p2386
I7074
sS'stepdaughter'
p2387
I7073
sS'hills'
p2388
I3134
sS'cornell'
p2389
I4242
sS'josh'
p2390
I7072
sS"ma'am"
p2391
I4241
sS'spread'
p2392
I2175
sS'board'
p2393
I1456
sS'zillion'
p2394
I7071
sS'openings'
p2395
I7070
sS'mayb'
p2396
I7069
sS'mayo'
p2397
I7068
sS'progressed'
p2398
I7067
sS'boxes'
p2399
I2174
sS'mail-order'
p2400
I2555
sS'cape'
p2401
I4240
sS'cooler'
p2402
I7066
sS'quadriplegic'
p2403
I7065
sS'securities'
p2404
I4239
sS'night'
p2405
I307
sS'security'
p2406
I1356
sS'antique'
p2407
I7064
sS'portuguese'
p2408
I4238
sS'sends'
p2409
I2553
sS'trainee'
p2410
I7063
sS'born'
p2411
I875
sS'hassle'
p2412
I4237
sS'critique'
p2413
I7062
sS'bora'
p2414
I692
sS'wireless'
p2415
I1394
sS'humor'
p2416
I4236
sS'purple'
p2417
I4235
sS'phenomenal'
p2418
I7060
sS'comments'
p2419
I2552
sS'asking'
p2420
I874
sS'denied'
p2421
I7059
sS'adorable'
p2422
I7058
sS'drink'
p2423
I1036
sS'marketing'
p2424
I715
sS'phew'
p2425
I7057
sS'pla'
p2426
I3590
sS'graduated'
p2427
I1143
sS'post'
p2428
I1355
sS'hackensack'
p2429
I7056
sS'diner'
p2430
I7055
sS'theirs'
p2431
I3132
sS'newspapers'
p2432
I3131
sS'months'
p2433
I417
sS'e-mailed'
p2434
I7054
sS'considerations'
p2435
I3130
sS'dilemma'
p2436
I4233
sS'wasting'
p2437
I3129
sS'pays'
p2438
I1712
sS'prisoners'
p2439
I1909
sS'profession'
p2440
I7053
sS'bound'
p2441
I5259
sS'balances'
p2442
I7052
sS'prisoner'
p2443
I7051
sS'wan'
p2444
I4231
sS'wai'
p2445
I5244
sS'fight'
p2446
I1282
sS'way'
p2447
I123
sS'was'
p2448
I28
sS'war'
p2449
I932
sS'lowest'
p2450
I7049
sS'becoming'
p2451
I2173
sS'elderly'
p2452
I3128
sS'astonished'
p2453
I7048
sS'true'
p2454
I159
sS'wa-'
p2455
I3127
sS'mtv'
p2456
I2172
sS'maximum'
p2457
I4230
sS'crystal'
p2458
I4229
sS'plymouth'
p2459
I4228
sS'complaint'
p2460
I7047
sS'emotional'
p2461
I4227
sS'mails'
p2462
I5181
sS'medication'
p2463
I3546
sS'moore'
p2464
I3126
sS'inclusive'
p2465
I5174
sS'yeadon'
p2466
I4226
sS'nicholson'
p2467
I6916
sS'umpire'
p2468
I7043
sS'religiously'
p2469
I7042
sS'flaw'
p2470
I7041
sS'evidence'
p2471
I7040
sS'potholes'
p2472
I7039
sS'mole'
p2473
I7038
sS'physical'
p2474
I3124
sS'dying'
p2475
I1455
sS'stake'
p2476
I7037
sS'reality'
p2477
I2171
sS'interested'
p2478
I931
sS'holding'
p2479
I1711
sS'test'
p2480
I614
sS'brothers'
p2481
I2170
sS"o'clock"
p2482
I758
sS'welcome'
p2483
I4225
sS'polite'
p2484
I2305
sS"let's"
p2485
I815
sS'scorer'
p2486
I7035
sS'scores'
p2487
I7034
sS'reflexes'
p2488
I4224
sS'amusement'
p2489
I6954
sS'together'
p2490
I385
sS'lectureship'
p2491
I6482
sS'pennsy'
p2492
I7032
sS'reception'
p2493
I3123
sS'matlock'
p2494
I7031
sS'farts'
p2495
I7718
sS'paced'
p2496
I3122
sS'animator'
p2497
I5096
sS'vampires'
p2498
I2550
sS'switched'
p2499
I1908
sS'dance'
p2500
I2549
sS'global'
p2501
I2548
sS'selection'
p2502
I7030
sS'daytime'
p2503
I7029
sS'grateful'
p2504
I7028
sS'battle'
p2505
I4223
sS'layers'
p2506
I5070
sS'certainly'
p2507
I757
sS'killings'
p2508
I4222
sS'zone'
p2509
I7026
sS'honoring'
p2510
I7025
sS'flash'
p2511
I4221
sS'rhythm'
p2512
I1907
sS"a's"
p2513
I7024
sS'southwest'
p2514
I2169
sS'brown'
p2515
I2168
sS'liability'
p2516
I7023
sS'vegas'
p2517
I995
sS'incentives'
p2518
I7771
sS'trouble'
p2519
I674
sS'blast'
p2520
I7022
sS'gue'
p2521
I2167
sS'presented'
p2522
I3121
sS'turns'
p2523
I2166
sS'fragile'
p2524
I7021
sS'gun'
p2525
I2003
sS'gus'
p2526
I7019
sS'p'
p2527
I736
sS'gut'
p2528
I7018
sS'guy'
p2529
I325
sS'upper'
p2530
I7017
sS'brave'
p2531
I4219
sS'legalized'
p2532
I2547
sS'regret'
p2533
I2165
sS'nortel'
p2534
I4218
sS'thinker'
p2535
I4217
sS'cost'
p2536
I673
sS'migraines'
p2537
I7016
sS'e-bay'
p2538
I7015
sS'bold'
p2539
I7014
sS'enticing'
p2540
I4980
sS'curse'
p2541
I3119
sS'barbie'
p2542
I7012
sS'assistance'
p2543
I3118
sS'shares'
p2544
I3117
sS'rome'
p2545
I2106
sS'shared'
p2546
I2546
sS'appeal'
p2547
I7011
sS'consolidations'
p2548
I7010
sS'satisfy'
p2549
I7009
sS'supporting'
p2550
I4957
sS'genes'
p2551
I7007
sS'redskins'
p2552
I3116
sS"hadn't"
p2553
I4938
sS'suckers'
p2554
I7005
sS'teaches'
p2555
I2545
sS'teacher'
p2556
I786
sS'morgantown'
p2557
I4931
sS'buck'
p2558
I2544
sS'incoming'
p2559
I756
sS'lakers'
p2560
I7004
sS'trial'
p2561
I1142
sS'franklin'
p2562
I1567
sS'usually'
p2563
I297
sS'pillow'
p2564
I7003
sS'montreal'
p2565
I7002
sS'regardless'
p2566
I1710
sS'hiking'
p2567
I7001
sS'extra'
p2568
I552
sS'marked'
p2569
I7000
sS'bullock'
p2570
I6999
sS'sincerely'
p2571
I6998
sS'penalized'
p2572
I6997
sS'brokerage'
p2573
I6996
sS'rarely'
p2574
I3115
sS'market'
p2575
I785
sS'angelo'
p2576
I6995
sS'buttons'
p2577
I7325
sS'prove'
p2578
I4214
sS'live'
p2579
I152
sS'planted'
p2580
I6993
sS'symbolized'
p2581
I4870
sS'suppos'
p2582
I6991
sS'angels'
p2583
I6990
sS're-chargeable'
p2584
I6989
sS'livi'
p2585
I6988
sS'club'
p2586
I1085
sS'clue'
p2587
I2164
sS'graphic'
p2588
I4213
sS'kasai'
p2589
I6987
sS'car'
p2590
I278
sS'cap'
p2591
I4212
sS'cat'
p2592
I1453
sS'incidents'
p2593
I6986
sS'can'
p2594
I74
sS'thirty-five'
p2595
I3419
sS'cal'
p2596
I4211
sS'heart'
p2597
I1141
sS'recalled'
p2598
I6682
sS'expanding'
p2599
I4813
sS'chip'
p2600
I2720
sS"didn't"
p2601
I256
sS'chit'
p2602
I6983
sS'topic'
p2603
I265
sS'heard'
p2604
I269
sS'refine'
p2605
I6982
sS'clothing'
p2606
I2543
sS'productive'
p2607
I3114
sS'fortunately'
p2608
I4210
sS'discussion'
p2609
I1709
sS'exceptional'
p2610
I5761
sS'write'
p2611
I1906
sS'economy'
p2612
I1708
sS'product'
p2613
I1566
sS'whacked'
p2614
I2163
sS'escalate'
p2615
I6981
sS'sacrifice'
p2616
I3113
sS'aol'
p2617
I4209
sS'southern'
p2618
I3112
sS'otherwi'
p2619
I6980
sS'commit'
p2620
I3961
sS'heroes'
p2621
I3111
sS'lifting'
p2622
I6979
sS'remember'
p2623
I300
sS'grandson'
p2624
I2542
sS'whenever'
p2625
I1084
sS'candles'
p2626
I6978
sS'nosey'
p2627
I6977
sS'offend'
p2628
I4208
sS'typical'
p2629
I4207
sS'no-'
p2630
I6976
sS'tagged'
p2631
I6975
sS'serving'
p2632
I4206
sS'pipe'
p2633
I4736
sS'indeed'
p2634
I6974
sS'forfeit'
p2635
I6973
sS'haircut'
p2636
I6972
sS'wakefield'
p2637
I7020
sS'playful'
p2638
I6971
sS'brain'
p2639
I1707
sS'fund-raising'
p2640
I4205
sS'congregating'
p2641
I6970
sS'cold'
p2642
I845
sS'still'
p2643
I178
sS'birds'
p2644
I4204
sS'cola'
p2645
I4203
sS'ethic'
p2646
I6969
sS'selves'
p2647
I6968
sS'window'
p2648
I1706
sS'atonement'
p2649
I6967
sS'norway'
p2650
I4202
sS'non'
p2651
I4201
sS'introduce'
p2652
I4200
sS'adrenaline'
p2653
I6966
sS'half'
p2654
I411
sS'not'
p2655
I17
sS'nov'
p2656
I4663
sS'now'
p2657
I83
sS'provision'
p2658
I6964
sS'hall'
p2659
I1987
sS'january'
p2660
I1083
sS'drop'
p2661
I3110
sS'whate'
p2662
I6963
sS'stockholm'
p2663
I6962
sS'entirely'
p2664
I4199
sS'concerts'
p2665
I1034
sS'last'
p2666
I193
sS'em'
p2667
I6961
sS'el'
p2668
I2162
sS'en'
p2669
I6960
sS'eh'
p2670
I140
sS'ed'
p2671
I1905
sS'directing'
p2672
I4562
sS'yeah'
p2673
I8
sS'ec'
p2674
I6958
sS'goose'
p2675
I4625
sS'racketball'
p2676
I6956
sS'ex'
p2677
I1491
sS'year'
p2678
I166
sS'happen'
p2679
I404
sS'ev'
p2680
I3349
sS'es'
p2681
I3987
sS'tried'
p2682
I548
sS'shown'
p2683
I4197
sS'accomplish'
p2684
I4196
sS'opened'
p2685
I1452
sS'space'
p2686
I1904
sS'parceled'
p2687
I6952
sS'lawyers'
p2688
I1502
sS'increase'
p2689
I1451
sS'wholeheartedly'
p2690
I6950
sS'receiving'
p2691
I1281
sS'pod'
p2692
I6949
sS'shows'
p2693
I904
sS'e-'
p2694
I4195
sS'older'
p2695
I672
sS'yea-'
p2696
I6948
sS'cars'
p2697
I930
sS'advantages'
p2698
I2541
sS'marino'
p2699
I6947
sS'card'
p2700
I1139
sS'care'
p2701
I252
sS'reflect'
p2702
I5039
sS'fixed'
p2703
I3729
sS'couldn'
p2704
I6946
sS'transition'
p2705
I1903
sS'fonder'
p2706
I6944
sS'british'
p2707
I6943
sS'honest'
p2708
I873
sS'promotion'
p2709
I3109
sS'blind'
p2710
I4193
sS'initial'
p2711
I4862
sS'striking'
p2712
I3107
sS'flipping'
p2713
I4192
sS'yourself'
p2714
I491
sS"m's"
p2715
I6942
sS'directly'
p2716
I2540
sS'costner'
p2717
I6941
sS'message'
p2718
I1603
sS'drove'
p2719
I1280
sS'tomorrow'
p2720
I872
sS'size'
p2721
I1902
sS'sheep'
p2722
I4191
sS'truthfully'
p2723
I6940
sS'checked'
p2724
I2676
sS'silent'
p2725
I6939
sS"valentine's"
p2726
I6938
sS'caught'
p2727
I967
sS'weekdays'
p2728
I4190
sS'carson'
p2729
I6937
sS'tragic'
p2730
I6936
sS'fo'
p2731
I3105
sS'friend'
p2732
I328
sS'mostly'
p2733
I783
sS'that'
p2734
I10
sS'pittsburgh'
p2735
I2539
sS'brains'
p2736
I6935
sS'appreciates'
p2737
I3104
sS'thai'
p2738
I6934
sS'flowers'
p2739
I4189
sS'than'
p2740
I184
sS'television'
p2741
I871
sS'crack'
p2742
I7272
sS'transferred'
p2743
I6933
sS'optimist'
p2744
I6932
sS'lunches'
p2745
I4188
sS'angel'
p2746
I6931
sS'remained'
p2747
I6930
sS'bugs'
p2748
I1886
sS'stash'
p2749
I6929
sS'publicity'
p2750
I2538
sS'form'
p2751
I1900
sS'veteran'
p2752
I3102
sS'terrific'
p2753
I3101
sS'online'
p2754
I1082
sS'begin'
p2755
I1899
sS'fenway'
p2756
I3877
sS'price'
p2757
I994
sS'pharaoh'
p2758
I6927
sS'america'
p2759
I1138
sS'manville'
p2760
I6926
sS'michelle'
p2761
I3100
sS'forever'
p2762
I1279
sS'wacked'
p2763
I6925
sS'egg'
p2764
I6924
sS'tooth'
p2765
I6923
sS'slaves'
p2766
I4187
sS'professional'
p2767
I1898
sS'german'
p2768
I1278
sS'fifty'
p2769
I551
sS'maine'
p2770
I4186
sS'fifth'
p2771
I903
sS'ground'
p2772
I2536
sS'aint'
p2773
I4185
sS'upgrade'
p2774
I2535
sS'ratio'
p2775
I4184
sS'title'
p2776
I1897
sS'atrocities'
p2777
I6216
sS'honors'
p2778
I6591
sS'only'
p2779
I139
sS'televisions'
p2780
I6922
sS'samuel'
p2781
I4183
sS'duel'
p2782
I6921
sS'hub-bub'
p2783
I6920
sS'truly'
p2784
I2161
sS'cannot'
p2785
I691
sS'squirrels'
p2786
I3543
sS'skinning'
p2787
I6777
sS'raunchy'
p2788
I6919
sS"everything's"
p2789
I3099
sS'husband'
p2790
I516
sS'concert'
p2791
I690
sS'burst'
p2792
I6918
sS'physically'
p2793
I3098
sS'soot'
p2794
I6917
sS'famine'
p2795
I6915
sS'elected'
p2796
I4182
sS'asleep'
p2797
I2533
sS'sport'
p2798
I966
sS'concern'
p2799
I3097
sS'staffed'
p2800
I6914
sS'rephrase'
p2801
I6913
sS'between'
p2802
I568
sS'notice'
p2803
I4180
sS'blame'
p2804
I1564
sS'hurts'
p2805
I6912
sS'article'
p2806
I6911
sS'bubble-gummy'
p2807
I6910
sS'mona'
p2808
I4497
sS'aura'
p2809
I6909
sS'wishful'
p2810
I6773
sS'comet'
p2811
I4178
sS'wheels'
p2812
I6908
sS'comes'
p2813
I390
sS'nearby'
p2814
I6907
sS'madness'
p2815
I6906
sS'fields'
p2816
I7378
sS'jeans'
p2817
I6905
sS'salinas'
p2818
I6904
sS"couldn't"
p2819
I696
sS'charismatic'
p2820
I6903
sS"passenger's"
p2821
I7857
sS'cares'
p2822
I3095
sS'informed'
p2823
I4177
sS'carey'
p2824
I6902
sS'cared'
p2825
I3264
sS'punished'
p2826
I1450
sS'linguistic'
p2827
I6901
sS'rebuilt'
p2828
I6900
sS'systems'
p2829
I1273
sS'havertown'
p2830
I4176
sS'hoffa'
p2831
I3094
sS'elvis'
p2832
I6899
sS'foggy'
p2833
I3093
sS'ruby'
p2834
I1896
sS'countless'
p2835
I5538
sS'crumb'
p2836
I4175
sS'developing'
p2837
I4174
sS'these'
p2838
I186
sS'trick'
p2839
I3552
sS'notoriety'
p2840
I6896
sS'fines'
p2841
I6772
sS"person's"
p2842
I2160
sS'bias'
p2843
I6895
sS'accounting'
p2844
I4173
sS'somebody'
p2845
I203
sS'ship'
p2846
I3092
sS'worry'
p2847
I671
sS'media'
p2848
I902
sS'gentlemen'
p2849
I6894
sS'ya'
p2850
I6893
sS'coworkers'
p2851
I6892
sS'noble'
p2852
I6891
sS'sold-'
p2853
I6890
sS'finish'
p2854
I1449
sS'closest'
p2855
I3091
sS'enjoyment'
p2856
I4172
sS'foam'
p2857
I2621
sS'alrighty'
p2858
I2532
sS'favorites'
p2859
I6888
sS'tradition'
p2860
I4171
sS'complained'
p2861
I4170
sS'theater'
p2862
I814
sS'daytona'
p2863
I6887
sS'bondage'
p2864
I6886
sS'charges'
p2865
I1354
sS'charger'
p2866
I4169
sS'constitutional'
p2867
I6885
sS'severe'
p2868
I2531
sS'breeze'
p2869
I6884
sS'joystick'
p2870
I4168
sS'charged'
p2871
I2530
sS'taxi'
p2872
I6883
sS'excel'
p2873
I6882
sS'neon'
p2874
I2529
sS'valuable'
p2875
I6881
sS'accumulate'
p2876
I3090
sS'robitaille'
p2877
I7304
sS'greetings'
p2878
I3233
sS'ounces'
p2879
I6879
sS'touch'
p2880
I1448
sS'speed'
p2881
I1895
sS'death'
p2882
I1353
sS'sheldon'
p2883
I4167
sS'thinking'
p2884
I352
sS'treatment'
p2885
I3089
sS'versa'
p2886
I3088
sS'republic'
p2887
I2230
sS'seams'
p2888
I5292
sS'frown'
p2889
I6878
sS'rules'
p2890
I1277
sS'psg'
p2891
I6877
sS'gonna'
p2892
I369
sS'early'
p2893
I754
sS'listening'
p2894
I1702
sS'dishes'
p2895
I7337
sS'symbolism'
p2896
I6876
sS'using'
p2897
I613
sS'lady'
p2898
I714
sS'cajuns'
p2899
I6875
sS'fortune'
p2900
I2528
sS'pounds'
p2901
I1562
sS'miracle'
p2902
I1701
sS'benefit'
p2903
I1700
sS'maker'
p2904
I7505
sS't'
p2905
I658
sS'occasions'
p2906
I6874
sS'dirtier'
p2907
I6873
sS'twelve'
p2908
I398
sS'cisco'
p2909
I4166
sS'exposed'
p2910
I2202
sS'telesales'
p2911
I2527
sS'fairs'
p2912
I6872
sS"ireland's"
p2913
I6871
sS'willis'
p2914
I4165
sS'recorded'
p2915
I4164
sS'conservative'
p2916
I6870
sS'dealership'
p2917
I4163
sS'deficit'
p2918
I6869
sS'recorder'
p2919
I4162
sS'hustle'
p2920
I4161
sS'assembly'
p2921
I6868
sS'business'
p2922
I364
sS'sixth'
p2923
I813
sS'equivalent'
p2924
I4160
sS'tuition'
p2925
I2199
sS'credits'
p2926
I3199
sS'hectic'
p2927
I3086
sS'innocence'
p2928
I3085
sS'sixty'
p2929
I782
sS'leftover'
p2930
I6865
sS'exciting'
p2931
I1937
sS'throw'
p2932
I1209
sS'central'
p2933
I2526
sS'wolf'
p2934
I6863
sS'lifestyles'
p2935
I4159
sS'w-you'
p2936
I7849
sS'carribean'
p2937
I3084
sS'freeing'
p2938
I6861
sS'outlook'
p2939
I6860
sS'color-coded'
p2940
I6859
sS'involvement'
p2941
I6858
sS'heated'
p2942
I6857
sS'operator'
p2943
I3753
sS'nowadays'
p2944
I693
sS'your'
p2945
I81
sS'stare'
p2946
I6855
sS'loc'
p2947
I6854
sS'forwarded'
p2948
I2525
sS'prepare'
p2949
I3083
sS'area'
p2950
I255
sS'assumed'
p2951
I3082
sS'disneyworld'
p2952
I6853
sS'los'
p2953
I2159
sS'cats'
p2954
I2524
sS'low'
p2955
I1447
sS'lot'
p2956
I82
sS'lou'
p2957
I4158
sS'somerset'
p2958
I4157
sS'overpaid'
p2959
I6852
sS'billion'
p2960
I6206
sS'pitcher'
p2961
I4156
sS'domingo'
p2962
I7846
sS'trying'
p2963
I240
sS'outskirts'
p2964
I6851
sS'hire'
p2965
I1894
sS'fraud'
p2966
I3081
sS'dominican'
p2967
I1893
sS'comics'
p2968
I3182
sS'receptive'
p2969
I6849
sS'bucket'
p2970
I6848
sS'freddy'
p2971
I6847
sS'tones'
p2972
I6846
sS'beliefs'
p2973
I2522
sS'wrestlers'
p2974
I6845
sS'moved'
p2975
I528
sS'sales'
p2976
I558
sS'aftershocks'
p2977
I6844
sS'salem'
p2978
I1276
sS'moves'
p2979
I3080
sS'hospitals'
p2980
I6843
sS'nerd'
p2981
I6842
sS'maserati'
p2982
I6841
sS'credibility'
p2983
I6840
sS'housework'
p2984
I6839
sS'valid'
p2985
I4155
sS'evenings'
p2986
I3079
sS'gambling'
p2987
I6838
sS'you'
p2988
I5
sS'forcing'
p2989
I6836
sS'poor'
p2990
I901
sS'suites'
p2991
I6835
sS'chemo'
p2992
I6834
sS'endeavors'
p2993
I6833
sS'carpenter'
p2994
I6832
sS'massachusetts'
p2995
I4154
sS'coverage'
p2996
I993
sS'redecorating'
p2997
I6831
sS'pool'
p2998
I6830
sS'building'
p2999
I628
sS'overseas'
p3000
I6829
sS'boonies'
p3001
I6828
sS'pointing'
p3002
I6827
sS'splitting'
p3003
I6826
sS'month'
p3004
I503
sS'cardiologist'
p3005
I6825
sS'carper'
p3006
I6824
sS'religious'
p3007
I4153
sS'carpet'
p3008
I6823
sS'referring'
p3009
I3078
sS'danielle'
p3010
I6822
sS'solicit'
p3011
I6821
sS'fountain'
p3012
I6820
sS'nodes'
p3013
I6819
sS'very'
p3014
I134
sS'horror'
p3015
I4152
sS'mpi'
p3016
I6818
sS'minded'
p3017
I6817
sS'decide'
p3018
I1081
sS'frankenstein'
p3019
I2521
sS'higgins'
p3020
I6816
sS'louis'
p3021
I6815
sS'anal'
p3022
I6814
sS'smith'
p3023
I1892
sS"i'll"
p3024
I479
sS'fence'
p3025
I6813
sS'streets'
p3026
I2520
sS'traveler'
p3027
I6812
sS'nearing'
p3028
I6811
sS'investing'
p3029
I2158
sS'favored'
p3030
I6810
sS'scallops'
p3031
I4151
sS'learned'
p3032
I1275
sS'turmoil'
p3033
I6809
sS'modify'
p3034
I6808
sS'ballet'
p3035
I6807
sS'answers'
p3036
I2157
sS'tracks'
p3037
I6806
sS'eventful'
p3038
I6805
sS'strong'
p3039
I965
sS'arena'
p3040
I6804
sS'colored'
p3041
I2519
sS'ahead'
p3042
I502
sS'losses'
p3043
I4150
sS'reason'
p3044
I542
sS'creepy'
p3045
I3077
sS"when's"
p3046
I7845
sS'amount'
p3047
I734
sS'base'
p3048
I1351
sS'advertising'
p3049
I964
sS'real'
p3050
I232
sS'trainer'
p3051
I1697
sS'technique'
p3052
I6195
sS'co-workers'
p3053
I6985
sS'family'
p3054
I251
sS'requiring'
p3055
I6802
sS'cosmetic'
p3056
I6801
sS'straightened'
p3057
I4149
sS'chunky'
p3058
I6800
sS'trained'
p3059
I3075
sS'toys'
p3060
I4148
sS'chunks'
p3061
I6799
sS'ash'
p3062
I6798
sS'takes'
p3063
I599
sS'injure'
p3064
I4147
sS'taken'
p3065
I843
sS'injury'
p3066
I6797
sS'chestnut'
p3067
I2156
sS'thrown'
p3068
I2481
sS"ufo's"
p3069
I6795
sS"mcbeal's"
p3070
I6794
sS'dion'
p3071
I6793
sS'site'
p3072
I7290
sS'excuse'
p3073
I992
sS'broke'
p3074
I1891
sS'hurry'
p3075
I2518
sS'producing'
p3076
I6791
sS'webmaster'
p3077
I6790
sS'weighed'
p3078
I5610
sS'offender'
p3079
I6789
sS'breezes'
p3080
I6788
sS'offended'
p3081
I1889
sS'nine'
p3082
I389
sS'history'
p3083
I1274
sS'pushes'
p3084
I6787
sS'pushed'
p3085
I2517
sS'f-'
p3086
I4146
sS'string'
p3087
I6193
sS'cheering'
p3088
I6786
sS'anoth'
p3089
I6785
sS'utilize'
p3090
I3074
sS'stayed'
p3091
I1080
sS'beggars'
p3092
I6784
sS'portray'
p3093
I6783
sS'fr'
p3094
I3073
sS'fu'
p3095
I4145
sS'rude'
p3096
I2155
sS'sneak'
p3097
I4144
sS"drive-in's"
p3098
I4143
sS'fa'
p3099
I3072
sS'tries'
p3100
I1887
sS'thirty-seven'
p3101
I6782
sS'fi'
p3102
I3071
sS'undergrads'
p3103
I4142
sS'a'
p3104
I14
sS'morphine'
p3105
I6781
sS'relocating'
p3106
I6780
sS'overnight'
p3107
I3103
sS'anytime'
p3108
I1885
sS'slacking'
p3109
I6779
sS'roommates'
p3110
I6778
sS'crafts'
p3111
I4141
sS'dream'
p3112
I1884
sS'chicks'
p3113
I4140
sS'y-'
p3114
I1883
sS'help'
p3115
I416
sS'soon'
p3116
I585
sS'held'
p3117
I2534
sS'committee'
p3118
I6776
sS'committed'
p3119
I2154
sS'hell'
p3120
I641
sS'cardiovascular'
p3121
I6775
sS'limelight'
p3122
I4139
sS'lobos'
p3123
I6774
sS'fined'
p3124
I4179
sS'actually'
p3125
I87
sS'minute'
p3126
I590
sS"haven't"
p3127
I365
sS'fool'
p3128
I6771
sS'evening'
p3129
I991
sS'motivated'
p3130
I3070
sS'yo'
p3131
I1272
sS'food'
p3132
I713
sS'ye'
p3133
I1696
sS'awarding'
p3134
I6770
sS'anticipated'
p3135
I4137
sS"you've"
p3136
I598
sS'foot'
p3137
I1352
sS'elder'
p3138
I6749
sS'sundays'
p3139
I6769
sS'fully'
p3140
I2516
sS'decimal'
p3141
I6768
sS'intervene'
p3142
I4136
sS'bless'
p3143
I6767
sS'stopped'
p3144
I781
sS'obligated'
p3145
I6766
sS"isn't"
p3146
I689
sS'referred'
p3147
I6765
sS'heavy'
p3148
I1695
sS'jaws'
p3149
I6764
sS'thirteenth'
p3150
I4135
sS'haley'
p3151
I6763
sS'wacky'
p3152
I6762
sS'todd'
p3153
I4134
sS'wacko'
p3154
I6761
sS'beyond'
p3155
I1694
sS'event'
p3156
I6760
sS'travels'
p3157
I4993
sS'robert'
p3158
I3068
sS'since'
p3159
I380
sS'douglas'
p3160
I6759
sS'safety'
p3161
I2515
sS'issue'
p3162
I1271
sS'ass'
p3163
I4133
sS'asr'
p3164
I4132
sS'pun'
p3165
I6758
sS"devil's"
p3166
I3530
sS'dirt'
p3167
I3067
sS'forty-niners'
p3168
I4131
sS'pub'
p3169
I6756
sS'labs'
p3170
I4130
sS'houses'
p3171
I1693
sS'wilks-barre'
p3172
I4129
sS'heroin'
p3173
I3076
sS'put'
p3174
I221
sS'earliest'
p3175
I6755
sS'turnout'
p3176
I6754
sS'terrible'
p3177
I670
sS'terribly'
p3178
I6753
sS'american'
p3179
I753
sS'expecting'
p3180
I2153
sS'scouts'
p3181
I4128
sS'heartbeat'
p3182
I6752
sS'dis'
p3183
I6751
sS'fischer'
p3184
I6750
sS'fucked'
p3185
I6007
sS'allenwood'
p3186
I6748
sS'miss'
p3187
I780
sS'maple'
p3188
I3066
sS'guaranteeing'
p3189
I6747
sS'st-'
p3190
I6746
sS'station'
p3191
I1446
sS'peo-'
p3192
I7635
sS'fingernail'
p3193
I7833
sS'virgil'
p3194
I2825
sS'hundred'
p3195
I277
sS'challenge'
p3196
I7412
sS'selling'
p3197
I1692
sS'jordan'
p3198
I6744
sS'authors'
p3199
I6743
sS'off'
p3200
I172
sS'grocery'
p3201
I1882
sS'grew'
p3202
I963
sS'sta'
p3203
I4127
sS'performers'
p3204
I6742
sS'grey'
p3205
I6706
sS'bride'
p3206
I4126
sS'greg'
p3207
I2514
sS'ecuador'
p3208
I4125
sS'attorney'
p3209
I4232
sS'plymouths'
p3210
I6740
sS'toward'
p3211
I6739
sS'mickey'
p3212
I6738
sS'deciding'
p3213
I4124
sS'affirmative'
p3214
I1350
sS'juice'
p3215
I4123
sS'substantial'
p3216
I6737
sS'philly'
p3217
I317
sS'vulnerable'
p3218
I4122
sS'lie'
p3219
I1561
sS'outbound'
p3220
I6736
sS'evasion'
p3221
I6735
sS'officers'
p3222
I6734
sS'lit'
p3223
I4121
sS'lip'
p3224
I6733
sS'lis'
p3225
I6732
sS'towards'
p3226
I962
sS'quote'
p3227
I1881
sS'quota'
p3228
I6731
sS"sam's"
p3229
I6730
sS'hired'
p3230
I1560
sS'experiences'
p3231
I2384
sS'eaten'
p3232
I6728
sS'comparisons'
p3233
I6727
sS'approved'
p3234
I6726
sS'salary'
p3235
I1207
sS'mobile'
p3236
I1559
sS'li-'
p3237
I6725
sS'clear'
p3238
I1349
sS'snapping'
p3239
I6724
sS'unreasonable'
p3240
I6723
sS'part-time'
p3241
I2152
sS'clean'
p3242
I1691
sS'tubes'
p3243
I6722
sS'hypes'
p3244
I6721
sS'humid'
p3245
I4120
sS'phenomenon'
p3246
I6720
sS'stunned'
p3247
I6719
sS"study's"
p3248
I6718
sS'church-going'
p3249
I6717
sS'hyped'
p3250
I4119
sS'illegalize'
p3251
I4118
sS'stores'
p3252
I2043
sS'northern'
p3253
I2151
sS'justice'
p3254
I1555
sS'darted'
p3255
I6715
sS'dissatisfying'
p3256
I6714
sS'flights'
p3257
I4117
sS'randy'
p3258
I4116
sS'pretty'
p3259
I124
sS'hardened'
p3260
I6713
sS'circle'
p3261
I3063
sS'dominant'
p3262
I3062
sS'king'
p3263
I1164
sS'trees'
p3264
I4115
sS'famous'
p3265
I812
sS'feels'
p3266
I2150
sS'basement'
p3267
I6712
sS'boils'
p3268
I2513
sS'during'
p3269
I627
sS'flip-phone'
p3270
I6711
sS'catches'
p3271
I6710
sS'freaky'
p3272
I4539
sS'hype'
p3273
I4114
sS'x'
p3274
I1880
sS'dur'
p3275
I6413
sS'ninety-one'
p3276
I6709
sS'scanning'
p3277
I6708
sS'seventeen'
p3278
I1270
sS'throwing'
p3279
I3059
sS'prague'
p3280
I6707
sS'sti'
p3281
I6741
sS'culture'
p3282
I2149
sS'bethlehem'
p3283
I281
sS'protecting'
p3284
I5598
sS'close'
p3285
I574
sS'patties'
p3286
I6503
sS'horrid'
p3287
I6704
sS'stu'
p3288
I6703
sS'wou'
p3289
I3058
sS'pictures'
p3290
I1878
sS'wow'
p3291
I142
sS'wor'
p3292
I1445
sS'won'
p3293
I1348
sS'probably'
p3294
I133
sS'conditions'
p3295
I4113
sS'steelers'
p3296
I6702
sS'intending'
p3297
I5392
sS'poorer'
p3298
I6701
sS'spray'
p3299
I6700
sS'genre'
p3300
I6699
sS'fluently'
p3301
I6698
sS'league'
p3302
I1347
sS'fiance'
p3303
I3057
sS"wouldn't"
p3304
I536
sS'tinsley'
p3305
I4549
sS'wo-'
p3306
I6696
sS'buzz'
p3307
I6695
sS'innactivated'
p3308
I6694
sS'experimental'
p3309
I4112
sS'liked'
p3310
I811
sS'jeff'
p3311
I1206
sS'battery'
p3312
I842
sS'steele'
p3313
I4111
sS'whatever'
p3314
I217
sS'likes'
p3315
I1205
sS'linux'
p3316
I6693
sS'bench'
p3317
I5596
sS'damp'
p3318
I6692
sS'strengthen'
p3319
I6691
sS'damn'
p3320
I1434
sS'maintenance'
p3321
I6689
sS'empty'
p3322
I6688
sS'dame'
p3323
I6687
sS'sanders'
p3324
I6686
sS'compromises'
p3325
I6685
sS'lived'
p3326
I415
sS'packs'
p3327
I6684
sS'citizen'
p3328
I5594
sS'else'
p3329
I214
sS'anthony'
p3330
I6683
sS'williamsport'
p3331
I3056
sS'lives'
p3332
I615
sS'disruptive'
p3333
I6404
sS'folklore'
p3334
I3055
sS'dialing'
p3335
I6680
sS'embellishments'
p3336
I6679
sS'intriguing'
p3337
I6678
sS'look'
p3338
I220
sS'rope'
p3339
I6677
sS'pace'
p3340
I2147
sS'while'
p3341
I313
sS'accidently'
p3342
I6676
sS'match'
p3343
I4110
sS'animated'
p3344
I6675
sS'richter'
p3345
I4109
sS'guide'
p3346
I6674
sS'loop'
p3347
I6673
sS'pack'
p3348
I2146
sS'costly'
p3349
I6672
sS'wherever'
p3350
I1876
sS'reads'
p3351
I4108
sS'ready'
p3352
I535
sS'payers'
p3353
I4107
sS'albany'
p3354
I3054
sS'communal'
p3355
I6671
sS'anymore'
p3356
I490
sS'grant'
p3357
I6670
sS'belong'
p3358
I1689
sS'grand'
p3359
I1346
sS'conflict'
p3360
I6669
sS'surreal'
p3361
I6447
sS'indianapolis'
p3362
I5251
sS'temporary'
p3363
I3053
sS'ratings'
p3364
I3052
sS'bonus'
p3365
I1875
sS'blair'
p3366
I2512
sS'taxes'
p3367
I1210
sS'historical'
p3368
I7134
sS'uses'
p3369
I3051
sS'user'
p3370
I2511
sS'haunting'
p3371
I3050
sS'database'
p3372
I4106
sS'obviously'
p3373
I640
sS'five'
p3374
I144
sS'gsm'
p3375
I1204
sS'yankees'
p3376
I1874
sS'coup'
p3377
I4105
sS'gu'
p3378
I5962
sS'gramercy'
p3379
I5857
sS'retirement'
p3380
I6666
sS'fiancee'
p3381
I1136
sS'canisters'
p3382
I6665
sS'cemetery'
p3383
I6664
sS'questioned'
p3384
I6663
sS'ventures'
p3385
I6275
sS'elves'
p3386
I4104
sS'sandwiches'
p3387
I4103
sS'march'
p3388
I1558
sS'lacking'
p3389
I6662
sS'showing'
p3390
I1688
sS'game'
p3391
I436
sS'culturally'
p3392
I6661
sS'damage'
p3393
I3333
sS'wings'
p3394
I6660
sS'inviting'
p3395
I6659
sS'signal'
p3396
I2510
sS'provoking'
p3397
I6658
sS'crawled'
p3398
I5591
sS'popular'
p3399
I1873
sS'terminology'
p3400
I4101
sS'whatsever'
p3401
I6657
sS'conet'
p3402
I6656
sS'brakes'
p3403
I6655
sS'fathers'
p3404
I6654
sS'creation'
p3405
I6653
sS'some'
p3406
I101
sS'outnumber'
p3407
I4100
sS'trends'
p3408
I3957
sS'economic'
p3409
I3049
sS'saddles'
p3410
I6651
sS'beneficially'
p3411
I6650
sS'appalachia'
p3412
I3048
sS'competitions'
p3413
I6649
sS'slash'
p3414
I6648
sS'transplant'
p3415
I6647
sS'forgets'
p3416
I4099
sS'minimal'
p3417
I6646
sS'foley'
p3418
I6645
sS'sweating'
p3419
I4910
sS'seances'
p3420
I6643
sS'run'
p3421
I515
sS'tabor'
p3422
I6642
sS'eruption'
p3423
I4978
sS'lakes'
p3424
I6640
sS'aerosmith'
p3425
I2509
sS'step'
p3426
I1687
sS'lasts'
p3427
I4098
sS'become'
p3428
I818
sS'corestates'
p3429
I6639
sS'pitchers'
p3430
I6638
sS'gmac'
p3431
I6637
sS'abroad'
p3432
I3047
sS'discus'
p3433
I6166
sS'faith'
p3434
I3046
sS'roxborough'
p3435
I4095
sS'tracing'
p3436
I6636
sS'messaging'
p3437
I6635
sS'classics'
p3438
I4094
sS'shiny'
p3439
I6634
sS'block'
p3440
I1982
sS'miracles'
p3441
I4093
sS'seeing'
p3442
I733
sS'dude'
p3443
I2454
sS'within'
p3444
I810
sS'france'
p3445
I2974
sS'rolls'
p3446
I4092
sS'smells'
p3447
I6632
sS'computer'
p3448
I336
sS'heritage'
p3449
I4091
sS'disallowed'
p3450
I6631
sS'confessing'
p3451
I6630
sS'himself'
p3452
I1872
sS'registered'
p3453
I1794
sS'frost'
p3454
I6628
sS'specialty'
p3455
I3045
sS'properly'
p3456
I3902
sS'authority'
p3457
I5586
sS'newer'
p3458
I4090
sS'russian'
p3459
I4089
sS'bossy'
p3460
I6627
sS'info'
p3461
I6626
sS'stumbling'
p3462
I3044
sS'accustomed'
p3463
I6625
sS'similar'
p3464
I2145
sS'ordered'
p3465
I6624
sS'adults'
p3466
I4088
sS'lectur'
p3467
I6623
sS'downingtown'
p3468
I6622
sS'carmen'
p3469
I5503
sS'nah'
p3470
I1444
sS'stuffy'
p3471
I6621
sS'application'
p3472
I3043
sS'nap'
p3473
I1870
sS'electrical'
p3474
I4087
sS'naw'
p3475
I6620
sS'grind'
p3476
I6619
sS'department'
p3477
I422
sS'manhattan'
p3478
I1686
sS'draw'
p3479
I2508
sS'kansas'
p3480
I6618
sS'visits'
p3481
I6617
sS'william'
p3482
I1557
sS'drag'
p3483
I2507
sS'rested'
p3484
I6616
sS'structure'
p3485
I4086
sS'affo'
p3486
I7813
sS'independently'
p3487
I3042
sS'e'
p3488
I501
sS'practically'
p3489
I6614
sS'dvd'
p3490
I3041
sS'outing'
p3491
I6613
sS'required'
p3492
I1443
sS"she'd"
p3493
I6612
sS'depth'
p3494
I4085
sS'ignorant'
p3495
I5086
sS'infringing'
p3496
I6611
sS'sounded'
p3497
I1685
sS'mercel'
p3498
I4084
sS'gs'
p3499
I6610
sS'nuns'
p3500
I4083
sS'cheerful'
p3501
I5954
sS'desserts'
p3502
I4082
sS'ge'
p3503
I2081
sS'go'
p3504
I63
sS'psycho'
p3505
I4081
sS'gi'
p3506
I4080
sS'expensi'
p3507
I6607
sS'somebo'
p3508
I5661
sS'easiest'
p3509
I2144
sS'shack'
p3510
I6605
sS'suite'
p3511
I6604
sS'cahn'
p3512
I6603
sS'friendly'
p3513
I1869
sS'duvall'
p3514
I6159
sS'assuming'
p3515
I2040
sS'kitty'
p3516
I6602
sS'miners'
p3517
I5456
sS'cellular'
p3518
I1079
sS'rattling'
p3519
I6601
sS'telling'
p3520
I597
sS'acres'
p3521
I3754
sS'g-'
p3522
I6600
sS'positions'
p3523
I3040
sS'button'
p3524
I4077
sS'michael'
p3525
I6599
sS'ryan'
p3526
I2143
sS'assignments'
p3527
I1683
sS'inspection'
p3528
I6598
sS'comforts'
p3529
I6597
sS'lazier'
p3530
I6596
sS'booty'
p3531
I6595
sS'picket'
p3532
I4076
sS'boots'
p3533
I4075
sS'waking'
p3534
I6594
sS'jump'
p3535
I1344
sS'picked'
p3536
I1269
sS'ringers'
p3537
I6716
sS'download'
p3538
I6593
sS'extracurric'
p3539
I6592
sS'click'
p3540
I3601
sS'plays'
p3541
I1556
sS'wallet'
p3542
I6590
sS'bluntly'
p3543
I6589
sS'vampire'
p3544
I4074
sS'cell'
p3545
I459
sS'upsetting'
p3546
I6588
sS'prescribe'
p3547
I4406
sS'fifteenth'
p3548
I2142
sS'following'
p3549
I1747
sS'focused'
p3550
I6586
sS'kidnapped'
p3551
I6585
sS'paranoid'
p3552
I3064
sS'products'
p3553
I1554
sS"weren't"
p3554
I1343
sS'gene'
p3555
I2505
sS'commendable'
p3556
I3039
sS'patents'
p3557
I6584
sS'foresee'
p3558
I6583
sS'clark'
p3559
I4073
sS'danger'
p3560
I6582
sS'win'
p3561
I1553
sS'manage'
p3562
I3038
sS'apprehensive'
p3563
I6581
sS'portals'
p3564
I6151
sS'addressed'
p3565
I4072
sS'gimmick'
p3566
I6580
sS'singing'
p3567
I2504
sS'cloud'
p3568
I4071
sS'strapped'
p3569
I4070
sS'crap'
p3570
I1682
sS'connery'
p3571
I1868
sS'hudson'
p3572
I6579
sS'camera'
p3573
I2141
sS'subsidized'
p3574
I3783
sS'vehicle'
p3575
I2140
sS'hiding'
p3576
I4069
sS'winston'
p3577
I6577
sS'dentists'
p3578
I6576
sS'biblical'
p3579
I6575
sS'started'
p3580
I274
sS'becomes'
p3581
I1681
sS'charming'
p3582
I6574
sS'mitsubishi'
p3583
I6573
sS'keswick'
p3584
I6572
sS'crosses'
p3585
I4068
sS'salad'
p3586
I1552
sS'ride'
p3587
I990
sS'crossed'
p3588
I4067
sS'meet'
p3589
I743
sS'drops'
p3590
I6570
sS'averages'
p3591
I3036
sS'next-door'
p3592
I6569
sS'control'
p3593
I869
sS'kenny'
p3594
I2503
sS'acapulco'
p3595
I6568
sS'halloween'
p3596
I3035
sS'pulling'
p3597
I3034
sS'wonderful'
p3598
I1442
sS'skirt'
p3599
I6567
sS'schnecksville'
p3600
I5719
sS'jails'
p3601
I3033
sS'campers'
p3602
I6566
sS'meanwhile'
p3603
I3061
sS'arrangement'
p3604
I6565
sS'located'
p3605
I2502
sS'facil-'
p3606
I6564
sS'swore'
p3607
I6139
sS'farm'
p3608
I1866
sS'peace'
p3609
I1497
sS'amenable'
p3610
I6023
sS"connery's"
p3611
I6563
sS'scoop'
p3612
I6562
sS'bakery'
p3613
I6561
sS'swimming'
p3614
I7256
sS'tannersville'
p3615
I4066
sS'unsolved'
p3616
I6560
sS'astronomical'
p3617
I6559
sS'thi-think'
p3618
I4962
sS'sperm'
p3619
I6558
sS'including'
p3620
I2875
sS'cruise'
p3621
I4064
sS'mentioned'
p3622
I1680
sS'brook'
p3623
I6557
sS'him'
p3624
I179
sS'koreans'
p3625
I6556
sS'auto'
p3626
I6555
sS'nokia'
p3627
I891
sS'hands'
p3628
I1033
sS'front'
p3629
I809
sS'handy'
p3630
I1865
sS'masters'
p3631
I1864
sS'somewher'
p3632
I6554
sS'fundraisers'
p3633
I6553
sS'university'
p3634
I406
sS'professorship'
p3635
I6552
sS'guard'
p3636
I6551
sS'slide'
p3637
I3031
sS'mode'
p3638
I5580
sS'crossing'
p3639
I2501
sS'unwind'
p3640
I4062
sS'chunk'
p3641
I6549
sS'hlr'
p3642
I6548
sS'aggravated'
p3643
I6547
sS'sands'
p3644
I6546
sS'measure'
p3645
I6545
sS'separating'
p3646
I6544
sS'special'
p3647
I1551
sS'entertainment'
p3648
I1268
sS'unlawful'
p3649
I6543
sS'ricky'
p3650
I6542
sS'demos'
p3651
I4920
sS'critics'
p3652
I6541
sS'cause'
p3653
I208
sS"one's"
p3654
I2139
sS'trashy'
p3655
I6540
sS'fam-you'
p3656
I6539
sS'switzerland'
p3657
I5214
sS'completely'
p3658
I840
sS'jill'
p3659
I6537
sS'princess'
p3660
I4061
sS'route'
p3661
I2138
sS'ask'
p3662
I435
sS'times'
p3663
I271
sS'austin'
p3664
I6536
sS'designed'
p3665
I5171
sS'evans'
p3666
I4059
sS'powerful'
p3667
I1267
sS'improving'
p3668
I4058
sS'bitch'
p3669
I6535
sS'sosa'
p3670
I6534
sS'drinker'
p3671
I6533
sS'quality'
p3672
I1203
sS"you're"
p3673
I177
sS'management'
p3674
I1441
sS'privacy'
p3675
I4057
sS'bears'
p3676
I4056
sS'adopted'
p3677
I6531
sS'attack'
p3678
I6530
sS'belize'
p3679
I6529
sS'wrapped'
p3680
I6528
sS'perfectly'
p3681
I3030
sS'tourists'
p3682
I5441
sS'punish'
p3683
I2500
sS'exactly'
p3684
I119
sS'lists'
p3685
I3029
sS'chemicals'
p3686
I6527
sS'allstate'
p3687
I6526
sS"that'll"
p3688
I3028
sS'overwhelming'
p3689
I6525
sS'herself'
p3690
I1863
sS'waist'
p3691
I6524
sS'hines'
p3692
I6523
sS'photograph'
p3693
I6522
sS'zedal'
p3694
I4055
sS'ben'
p3695
I1113
sS'bel'
p3696
I4054
sS'bec'
p3697
I4053
sS"weather's"
p3698
I6520
sS'bef'
p3699
I6519
sS'beg'
p3700
I6518
sS'bed'
p3701
I1202
sS'anaheim'
p3702
I6517
sS'bare'
p3703
I4956
sS'referral'
p3704
I6516
sS'bet'
p3705
I868
sS'lightly'
p3706
I6515
sS'goldberg'
p3707
I6514
sS'portrait'
p3708
I6513
sS'need'
p3709
I224
sS'border'
p3710
I3027
sS'screw'
p3711
I1862
sS'microphone'
p3712
I4052
sS'insures'
p3713
I6512
sS'able'
p3714
I312
sS'purchasing'
p3715
I6511
sS'instance'
p3716
I1135
sS'relatives'
p3717
I2499
sS'truck'
p3718
I1861
sS'visor'
p3719
I6510
sS'blades'
p3720
I6509
sS'venereal'
p3721
I6508
sS'lectures'
p3722
I6507
sS"bachelor's"
p3723
I4051
sS'casmen'
p3724
I6506
sS'predicament'
p3725
I6035
sS'connected'
p3726
I1860
sS'camped'
p3727
I6505
sS'expired'
p3728
I6504
sS'probable'
p3729
I6705
sS'stereo'
p3730
I2137
sS'consequences'
p3731
I3026
sS'upset'
p3732
I1440
sS'skunk'
p3733
I4050
sS'indi'
p3734
I6502
sS'impression'
p3735
I2338
sS'violation'
p3736
I4049
sS'anyway'
p3737
I347
sS'parked'
p3738
I3025
sS'passe'
p3739
I5305
sS'partners'
p3740
I6500
sS'abettor'
p3741
I5298
sS'based'
p3742
I928
sS'schwartz'
p3743
I6498
sS'earned'
p3744
I4047
sS'hopeful'
p3745
I6497
sS'employer'
p3746
I6496
sS'bases'
p3747
I4046
sS'reorganizing'
p3748
I6495
sS'inherited'
p3749
I6494
sS'employee'
p3750
I886
sS'employed'
p3751
I2498
sS'achieve'
p3752
I3024
sS'dodge'
p3753
I6492
sS'michigan'
p3754
I4045
sS'overall'
p3755
I2136
sS'joint'
p3756
I1859
sS'endless'
p3757
I6491
sS'heart-wrenching'
p3758
I6490
sS'tobacco'
p3759
I1550
sS'course'
p3760
I379
sS'comb'
p3761
I7705
sS'cherryville'
p3762
I6489
sS'tuned'
p3763
I4044
sS"somebody's"
p3764
I1549
sS'she'
p3765
I84
sS'gran'
p3766
I6488
sS'wish'
p3767
I498
sS'shi'
p3768
I6487
sS'grab'
p3769
I2135
sS'grad'
p3770
I1266
sS'sho'
p3771
I5240
sS'shake'
p3772
I6130
sS'freeze'
p3773
I3023
sS'korea'
p3774
I2554
sS'driveway'
p3775
I6486
sS'desperate'
p3776
I6485
sS'stats'
p3777
I6484
sS'arou'
p3778
I6483
sS'nightmare'
p3779
I2497
sS'missing'
p3780
I2148
sS'tend'
p3781
I4041
sS'written'
p3782
I3558
sS'supernatural'
p3783
I6481
sS'horrible'
p3784
I899
sS'chipmunks'
p3785
I6480
sS'neither'
p3786
I979
sS'mainly'
p3787
I2707
sS'stenya'
p3788
I4040
sS'importance'
p3789
I6478
sS'kee'
p3790
I6477
sS'kicking'
p3791
I2496
sS'merry'
p3792
I5182
sS'police'
p3793
I1071
sS'precious'
p3794
I6475
sS'distribution'
p3795
I7245
sS'monitor'
p3796
I2968
sS'hits'
p3797
I6474
sS'inundate'
p3798
I6473
sS'admin'
p3799
I3542
sS'minds'
p3800
I6472
sS'admit'
p3801
I1341
sS'publicized'
p3802
I2134
sS'jersey'
p3803
I387
sS'tuesday'
p3804
I3022
sS'kings'
p3805
I6471
sS'quit'
p3806
I2495
sS'discrimination'
p3807
I2133
sS'cent'
p3808
I5125
sS'outlaws'
p3809
I6469
sS'int'
p3810
I3021
sS'slowly'
p3811
I4039
sS'treat'
p3812
I1439
sS'ufos'
p3813
I1438
sS'oth'
p3814
I3020
sS'senses'
p3815
I6468
sS'both'
p3816
I359
sS'ons'
p3817
I6467
sS'ours'
p3818
I1437
sS'smoking'
p3819
I688
sS'novel'
p3820
I1857
sS'harder'
p3821
I1677
sS'qualcomm'
p3822
I3019
sS'brainer'
p3823
I6125
sS'owns'
p3824
I2494
sS'demo'
p3825
I3018
sS'ninety-five'
p3826
I3017
sS'lambs'
p3827
I6466
sS'minorities'
p3828
I6697
sS'began'
p3829
I4038
sS'operas'
p3830
I6465
sS'strange'
p3831
I898
sS'northwest'
p3832
I6464
sS'underground'
p3833
I2755
sS'party'
p3834
I867
sS'tapped'
p3835
I6462
sS'promoters'
p3836
I5013
sS'effect'
p3837
I1133
sS'discouraged'
p3838
I6460
sS'frequently'
p3839
I4037
sS'destruction'
p3840
I6459
sS'paycheck'
p3841
I1436
sS'minescu'
p3842
I4995
sS'reflection'
p3843
I6457
sS'hokies'
p3844
I6122
sS'i'
p3845
I4
sS'phila'
p3846
I6456
sS'well'
p3847
I50
sS'booton'
p3848
I6455
sS'dressed'
p3849
I2864
sS'reside'
p3850
I4035
sS'savannah'
p3851
I6454
sS'accurate'
p3852
I6453
sS'mistaken'
p3853
I6452
sS'sources'
p3854
I6451
sS'mistakes'
p3855
I6450
sS'distant'
p3856
I4034
sS'advertised'
p3857
I2493
sS'skill'
p3858
I6449
sS'two-forty'
p3859
I6448
sS'write-ups'
p3860
I5559
sS'logged'
p3861
I6446
sS'nati'
p3862
I6445
sS'sweet'
p3863
I4940
sS'geolo'
p3864
I6444
sS'ought'
p3865
I2041
sS'kick'
p3866
I2740
sS'utah'
p3867
I3016
sS'burden'
p3868
I6443
sS'immediately'
p3869
I3015
sS'prominent'
p3870
I6442
sS'loss'
p3871
I2131
sS'lincoln'
p3872
I4032
sS'doorways'
p3873
I4899
sS'lost'
p3874
I778
sS'sizes'
p3875
I6441
sS'exploiting'
p3876
I6440
sS'candy'
p3877
I6439
sS'taping'
p3878
I6438
sS'payments'
p3879
I6437
sS'martin'
p3880
I2272
sS'page'
p3881
I1265
sS'therein'
p3882
I6436
sS'trucked'
p3883
I6435
sS'gillian'
p3884
I6434
sS'belonged'
p3885
I6433
sS'library'
p3886
I485
sS'motive'
p3887
I4031
sS'repeat'
p3888
I6432
sS'warmer'
p3889
I4030
sS'home'
p3890
I180
sS'liking'
p3891
I4029
sS'leery'
p3892
I6431
sS'drizzle'
p3893
I6430
sS'pinpoint'
p3894
I4028
sS'broad'
p3895
I1855
sS'delaware'
p3896
I2130
sS'e-mail'
p3897
I1132
sS'pr'
p3898
I3014
sS'workgroup'
p3899
I6429
sS'monetary'
p3900
I6428
sS'cataracts'
p3901
I6427
sS'freedom'
p3902
I1078
sS'recognized'
p3903
I2129
sS'cranberry'
p3904
I4027
sS'recognizes'
p3905
I4026
sS'previously'
p3906
I4025
sS'washington'
p3907
I1435
sS'congregate'
p3908
I6426
sS'finalizing'
p3909
I6425
sS'h-'
p3910
I4772
sS'obvi'
p3911
I4760
sS'utility'
p3912
I6423
sS'macroeconomics'
p3913
I6422
sS'prozac'
p3914
I4024
sS'accused'
p3915
I2014
sS'whom'
p3916
I6420
sS'museum'
p3917
I2128
sS'protectors'
p3918
I4763
sS'whoo'
p3919
I6419
sS'inner'
p3920
I2127
sS'pacbell'
p3921
I6690
sS'pg'
p3922
I6418
sS'north'
p3923
I521
sS'hr'
p3924
I3011
sS'treacherous'
p3925
I6119
sS'hp'
p3926
I6415
sS'hu'
p3927
I4023
sS'hi'
p3928
I839
sS'goals'
p3929
I2773
sS'courts'
p3930
I2126
sS'hm'
p3931
I131
sS'technician'
p3932
I4022
sS'eas'
p3933
I6414
sS'ear'
p3934
I3388
sS'eat'
p3935
I794
sS'hd'
p3936
I6412
sS'he'
p3937
I59
sS'signed'
p3938
I777
sS'twenty-eight'
p3939
I4930
sS'cruel'
p3940
I6411
sS'stories'
p3941
I1676
sS'woke'
p3942
I4021
sS'piece'
p3943
I1339
sS'display'
p3944
I6410
sS'universal'
p3945
I4020
sS'erin'
p3946
I4694
sS'beats'
p3947
I6409
sS'lay-away'
p3948
I2124
sS'erie'
p3949
I4684
sS'eric'
p3950
I3010
sS'diego'
p3951
I1854
sS'contest'
p3952
I4019
sS'youngsters'
p3953
I6668
sS"old's"
p3954
I3926
sS'star'
p3955
I1031
sS'ecstatic'
p3956
I3009
sS'thirty-six'
p3957
I3008
sS'stay'
p3958
I335
sS"casner's"
p3959
I6408
sS'animosity'
p3960
I6407
sS'friends'
p3961
I409
sS'dewey'
p3962
I6406
sS'gardens'
p3963
I7236
sS'portion'
p3964
I4018
sS'extras'
p3965
I4017
sS'determination'
p3966
I6405
sS'denies'
p3967
I7061
sS'simpson'
p3968
I2491
sS'liver'
p3969
I6681
sS'whoopy'
p3970
I6403
sS'pardon'
p3971
I1433
sS'trenton'
p3972
I2370
sS'whoops'
p3973
I6402
sS'asian'
p3974
I2490
sS'whose'
p3975
I866
sS'buddy'
p3976
I4016
sS'segments'
p3977
I4015
sS'disability'
p3978
I3340
sS'presents'
p3979
I3007
sS'unionized'
p3980
I4014
sS'aut'
p3981
I6400
sS'recycle'
p3982
I865
sS'teaching'
p3983
I1675
sS'sorry'
p3984
I346
sS'winfrey'
p3985
I4013
sS'activation'
p3986
I1432
sS'georgia'
p3987
I2489
sS'crayola'
p3988
I3006
sS'affect'
p3989
I1030
sS'shawshank'
p3990
I4012
sS'skills'
p3991
I3327
sS'companies'
p3992
I959
sS'upc'
p3993
I5011
sS'storming'
p3994
I6880
sS'convenience'
p3995
I3005
sS'tempting'
p3996
I7609
sS'roundness'
p3997
I6397
sS'enhance'
p3998
I3004
sS'sponsored'
p3999
I6729
sS'ups'
p4000
I1977
sS'clothes'
p4001
I870
sS'force'
p4002
I1296
sS'rodman'
p4003
I3002
sS'japanese'
p4004
I1853
sS'across'
p4005
I806
sS'likely'
p4006
I1852
sS'lehigh'
p4007
I897
sS'huffing'
p4008
I6394
sS'even'
p4009
I106
sS'preferences'
p4010
I6393
sS'wreck'
p4011
I2488
sS'lights'
p4012
I4011
sS'dr.'
p4013
I6392
sS'nev'
p4014
I6391
sS'new'
p4015
I167
sS'net'
p4016
I2243
sS'ever'
p4017
I212
sS"omnipoint's"
p4018
I4010
sS'med'
p4019
I6389
sS'deemed'
p4020
I6388
sS"not's"
p4021
I7706
sS'mem'
p4022
I4009
sS'mel'
p4023
I2487
sS'never'
p4024
I135
sS'anthropology'
p4025
I3001
sS'met'
p4026
I927
sS'mer'
p4027
I6387
sS'active'
p4028
I1431
sS"aren't"
p4029
I1051
sS'dry'
p4030
I2122
sS'luther'
p4031
I4008
sS'tapes'
p4032
I1546
sS'jams'
p4033
I6386
sS'economics'
p4034
I2999
sS'credit'
p4035
I1338
sS'dra'
p4036
I6385
sS'mime'
p4037
I7769
sS"someone's"
p4038
I2121
sS'rafting'
p4039
I4007
sS'astute'
p4040
I6383
sS'grandkids'
p4041
I2998
sS'fantastic'
p4042
I1851
sS'campaign'
p4043
I6382
sS'latifah'
p4044
I6381
sS'county'
p4045
I1029
sS'ninety'
p4046
I838
sS'moral'
p4047
I6380
sS'counts'
p4048
I6379
sS'age-wise'
p4049
I6378
sS'criminals'
p4050
I2997
sS'army'
p4051
I2486
sS'barks'
p4052
I6377
sS'arms'
p4053
I6376
sS'cali'
p4054
I6375
sS'latchkey'
p4055
I6374
sS'call'
p4056
I113
sS'calm'
p4057
I6372
sS'recommend'
p4058
I1850
sS'survive'
p4059
I4006
sS'type'
p4060
I402
sS'tell'
p4061
I181
sS'posting'
p4062
I6371
sS'wars'
p4063
I1131
sS'dogma'
p4064
I4005
sS'warm'
p4065
I1077
sS'frenzy'
p4066
I6370
sS'adult'
p4067
I1674
sS'room'
p4068
I605
sS'rights'
p4069
I1545
sS'setup'
p4070
I6369
sS'roof'
p4071
I2120
sS'movies'
p4072
I430
sS'abuser'
p4073
I7653
sS'solitaire'
p4074
I4004
sS'newfoundland'
p4075
I6368
sS'laugh}'
p4076
I4003
sS'give'
p4077
I231
sS'programming'
p4078
I2119
sS'stressing'
p4079
I4002
sS'honey'
p4080
I3289
sS'point'
p4081
I382
sS'sats'
p4082
I6366
sS'amazing'
p4083
I732
sS'answer'
p4084
I751
sS'cornrows'
p4085
I6365
sS'ea'
p4086
I6959
sS'minority'
p4087
I6364
sS'curiosity'
p4088
I6363
sS'president'
p4089
I1673
sS"team's"
p4090
I6362
sS'purchase'
p4091
I1672
sS'third'
p4092
I567
sS'capitalism'
p4093
I6361
sS'waited'
p4094
I6360
sS'goodbye'
p4095
I4001
sS'athletes'
p4096
I1671
sS'allen-'
p4097
I6359
sS'operations'
p4098
I2996
sS'deck'
p4099
I6358
sS'keyboard'
p4100
I4000
sS"junior's"
p4101
I6357
sS'windshield'
p4102
I3999
sS'before'
p4103
I206
sS'scoring'
p4104
I6356
sS'deathly'
p4105
I6355
sS'personal'
p4106
I656
sS'crew'
p4107
I3998
sS'better'
p4108
I225
sS'differently'
p4109
I2485
sS'weeks'
p4110
I458
sS'logic'
p4111
I7922
sS'combination'
p4112
I3997
sS'fixation'
p4113
I6354
sS'downs'
p4114
I4493
sS'downright'
p4115
I6352
sS'grammar'
p4116
I6351
sS'meat'
p4117
I6350
sS'arrested'
p4118
I1849
sS'lorenz'
p4119
I4345
sS'wage'
p4120
I453
sS'went'
p4121
I141
sS'outreach'
p4122
I7036
sS'side'
p4123
I677
sS'bone'
p4124
I2484
sS'mean'
p4125
I49
sS'metaphysical'
p4126
I7330
sS'taught'
p4127
I776
sS'trading'
p4128
I3996
sS'forgot'
p4129
I864
sS'navy'
p4130
I6348
sS'aids'
p4131
I2995
sS'collector'
p4132
I2218
sS'restricted'
p4133
I6346
sS'crucial'
p4134
I3995
sS'networker'
p4135
I6345
sS'surprise'
p4136
I2994
sS'turning'
p4137
I6344
sS'resume'
p4138
I2483
sS"dinner's"
p4139
I6343
sS'whammy'
p4140
I6342
sS'struggle'
p4141
I6341
sS'egyptians'
p4142
I6340
sS'mistress'
p4143
I6339
sS'starts'
p4144
I1337
sS'messages'
p4145
I6338
sS'loud'
p4146
I2118
sS'cleaning'
p4147
I2993
sS'twenty-two'
p4148
I2482
sS'features'
p4149
I2117
sS'grade'
p4150
I612
sS'hoop'
p4151
I3994
sS'mortage'
p4152
I6337
sS'hook'
p4153
I3993
sS'featured'
p4154
I6336
sS'floors'
p4155
I6335
sS'girly'
p4156
I6334
sS'girls'
p4157
I645
sS'boating'
p4158
I3992
sS'dwell'
p4159
I6331
sS'hollywood'
p4160
I2116
sS'guidelines'
p4161
I3991
sS'gym'
p4162
I2480
sS'realization'
p4163
I6330
sS'entryish'
p4164
I6329
sS'tokens'
p4165
I2992
sS'somewhat'
p4166
I1847
sS'distance'
p4167
I2614
sS'princeton'
p4168
I6327
sS'legalize'
p4169
I2479
sS'matter'
p4170
I465
sS'fabulous'
p4171
I2368
sS'silly'
p4172
I1846
sS'spoiled'
p4173
I2991
sS'mini'
p4174
I3990
sS'sees'
p4175
I2115
sS'modern'
p4176
I2478
sS'mind'
p4177
I397
sS'mine'
p4178
I440
sS'bouncer'
p4179
I4907
sS'all-time'
p4180
I6325
sS'seed'
p4181
I3989
sS'seen'
p4182
I303
sS'seem'
p4183
I584
sS'sounding'
p4184
I6324
sS'tells'
p4185
I938
sS'do-'
p4186
I6322
sS'fitting'
p4187
I6321
sS'chess'
p4188
I3216
sS"lisa's"
p4189
I6320
sS'psychologically'
p4190
I6319
sS'regular'
p4191
I712
sS'marie'
p4192
I3988
sS'maria'
p4193
I6318
sS'bedding'
p4194
I7261
sS'doi'
p4195
I6317
sS'dol'
p4196
I3986
sS'dom'
p4197
I6316
sS'medical'
p4198
I1200
sS'm'
p4199
I457
sS'dog'
p4200
I837
sS'doe'
p4201
I2476
sS'definitely'
p4202
I161
sS'consumer'
p4203
I6315
sS'annoyed'
p4204
I6314
sS'dot'
p4205
I2475
sS'dou'
p4206
I6313
sS'hunger'
p4207
I3985
sS"line's"
p4208
I6667
sS'ending'
p4209
I2474
sS'lipsmack'
p4210
I95
sS'northeast'
p4211
I1669
sS'weekends'
p4212
I1149
sS'stabbing'
p4213
I6312
sS'folks'
p4214
I2114
sS'folder'
p4215
I6311
sS'hoard'
p4216
I6310
sS'falsely'
p4217
I5154
sS'disconnecting'
p4218
I6309
sS'wearing'
p4219
I2113
sS'monica'
p4220
I6308
sS'stop'
p4221
I566
sS'coast'
p4222
I1076
sS'appendixes'
p4223
I5973
sS'comply'
p4224
I3984
sS'bat'
p4225
I1727
sS'bar'
p4226
I761
sS'bas'
p4227
I6305
sS'disci'
p4228
I6304
sS'bay'
p4229
I2990
sS'bag'
p4230
I2473
sS'bad'
p4231
I182
sS'architecture'
p4232
I6303
sS'ban'
p4233
I2112
sS'bam'
p4234
I5047
sS'ears'
p4235
I6301
sS'decides'
p4236
I6300
sS'fascinating'
p4237
I4349
sS'testing'
p4238
I958
sS'om-'
p4239
I6299
sS'decided'
p4240
I711
sS'armageddon'
p4241
I3982
sS'subject'
p4242
I687
sS'deloise'
p4243
I3981
sS'said'
p4244
I107
sS"there'd"
p4245
I3980
sS'smacks'
p4246
I6298
sS"there's"
p4247
I211
sS'pets'
p4248
I3979
sS'sorts'
p4249
I6297
sS'tolerance'
p4250
I3978
sS'warrior'
p4251
I3977
sS'crayons'
p4252
I3976
sS'wears'
p4253
I2111
sS'weary'
p4254
I6296
sS'harvard'
p4255
I3975
sS'orthodontist'
p4256
I6295
sS'cousin'
p4257
I1429
sS'picking'
p4258
I1544
sS'suggested'
p4259
I6294
sS'painesville'
p4260
I2472
sS'uncertainty'
p4261
I6293
sS'against'
p4262
I957
sS'russia'
p4263
I7753
sS'und'
p4264
I6292
sS'uni'
p4265
I6291
sS'coconut'
p4266
I3911
sS'inquisitive'
p4267
I6290
sS"caesar's"
p4268
I6289
sS'initiative'
p4269
I6288
sS'lowly'
p4270
I6287
sS'springs'
p4271
I6286
sS'nicer'
p4272
I1477
sS'puts'
p4273
I2187
sS'basis'
p4274
I1668
sS'three'
p4275
I163
sS'tiny'
p4276
I2988
sS'commission'
p4277
I3973
sS'detrimental'
p4278
I6285
sS'interest'
p4279
I1543
sS'basic'
p4280
I1845
sS'entered'
p4281
I2471
sS'lovely'
p4282
I3972
sS'idol'
p4283
I6284
sS'threw'
p4284
I2987
sS'website'
p4285
I6283
sS'chug'
p4286
I2986
sS'deeper'
p4287
I6282
sS'sunshine'
p4288
I6281
sS'tapping'
p4289
I3971
sS'alley'
p4290
I7752
sS'personally'
p4291
I836
sS'exception'
p4292
I6278
sS'reddish'
p4293
I6277
sS'stratosphere'
p4294
I6276
sS'auction'
p4295
I2861
sS'near'
p4296
I583
sS'suppose'
p4297
I878
sS'wildest'
p4298
I5746
sS'levittown'
p4299
I2470
sS'balance'
p4300
I2108
sS'study'
p4301
I301
sS'chilling'
p4302
I2985
sS'twenty-four'
p4303
I1428
sS'seven'
p4304
I414
sS'mexico'
p4305
I1263
sS'iq'
p4306
I6274
sS'ip'
p4307
I6273
sS'is'
p4308
I11
sS'semesters'
p4309
I6026
sS'it'
p4310
I7
sS'shame'
p4311
I1028
sS'cant'
p4312
I6272
sS'im'
p4313
I2469
sS'cans'
p4314
I2574
sS'in'
p4315
I23
sS'seattle'
p4316
I2107
sS'mouse'
p4317
I2984
sS'id'
p4318
I3970
sS'if'
p4319
I45
sS'grown'
p4320
I1427
sS'make'
p4321
I132
sS"everybody's"
p4322
I1075
sS'potentially'
p4323
I3969
sS'unfortunate'
p4324
I3968
sS'chatroom'
p4325
I6270
sS'shoveling'
p4326
I6269
sS'grows'
p4327
I6268
sS'passats'
p4328
I6267
sS'sacramento'
p4329
I6266
sS'i-'
p4330
I1667
sS'jealous'
p4331
I3967
sS'opportunity'
p4332
I1074
sS"he'll"
p4333
I2467
sS'thoughts'
p4334
I2179
sS'kid'
p4335
I478
sS'butter'
p4336
I6264
sS'provisioned'
p4337
I6263
sS'programs'
p4338
I639
sS'settled'
p4339
I5518
sS'smokes'
p4340
I6262
sS'smoker'
p4341
I1199
sS'materials'
p4342
I4181
sS'smoked'
p4343
I2983
sS'yours'
p4344
I1459
sS'left'
p4345
I378
sS'just'
p4346
I33
sS'sentence'
p4347
I3966
sS'yea'
p4348
I2982
sS'unfair'
p4349
I1666
sS'verses'
p4350
I3965
sS'year-old'
p4351
I6260
sS'identify'
p4352
I6259
sS'human'
p4353
I1198
sS'facts'
p4354
I2105
sS'yep'
p4355
I377
sS'yes'
p4356
I118
sS'yet'
p4357
I268
sS'belfast'
p4358
I6258
sS'character'
p4359
I1665
sS'squad'
p4360
I6257
sS'save'
p4361
I956
sS'designate'
p4362
I6256
sS'seventy-five'
p4363
I1568
sS'vanessa'
p4364
I3964
sS'whichever'
p4365
I6254
sS'discreet'
p4366
I6253
sS'orthodontic'
p4367
I6252
sS'background'
p4368
I926
sS'destroy'
p4369
I4513
sS'dreams'
p4370
I2104
sS'jus-'
p4371
I6251
sS'shoulder'
p4372
I6250
sS'ericson'
p4373
I7748
sS'performing'
p4374
I2466
sS'unnecessary'
p4375
I6248
sS'dean'
p4376
I6247
sS'deal'
p4377
I344
sS'somehow'
p4378
I2103
sS'dead'
p4379
I955
sS'wwf'
p4380
I3963
sS'dear'
p4381
I2102
sS'dense'
p4382
I6246
sS'tracked'
p4383
I6245
sS'outspoken'
p4384
I6244
sS'bigera'
p4385
I6243
sS'arguing'
p4386
I3904
sS'meanings'
p4387
I2980
sS"thing's"
p4388
I6242
sS'devastation'
p4389
I7209
sS'burn'
p4390
I686
sS'unorganized'
p4391
I6241
sS'concer'
p4392
I6240
sS'super'
p4393
I2101
sS"something's"
p4394
I6239
sS'yelling'
p4395
I3962
sS'keros'
p4396
I6238
sS'afternoon'
p4397
I1844
sS'islands'
p4398
I1565
sS'automatically'
p4399
I3960
sS'nerve'
p4400
I6237
sS'motivate'
p4401
I7206
sS'managers'
p4402
I1424
sS'lied'
p4403
I3959
sS'lycombing'
p4404
I6236
sS'intellectual'
p4405
I2979
sS'negative'
p4406
I2465
sS'down'
p4407
I130
sS'pair'
p4408
I6085
sS'jenk'
p4409
I6235
sS'amsterdam'
p4410
I6234
sS'dowd'
p4411
I6233
sS'subj'
p4412
I6232
sS'murderers'
p4413
I6231
sS'amazingly'
p4414
I6230
sS'flying'
p4415
I3108
sS'jealousy'
p4416
I6228
sS'approximate'
p4417
I6227
sS'seinfield'
p4418
I6226
sS'editor'
p4419
I6225
sS'fraction'
p4420
I6224
sS'starve'
p4421
I6223
sS'offering'
p4422
I1664
sS'batman'
p4423
I6222
sS'fireworks'
p4424
I6221
sS'landing'
p4425
I3958
sS'ford'
p4426
I4629
sS'idealized'
p4427
I6219
sS'sagas'
p4428
I6218
sS'dow-'
p4429
I6217
sS'approval'
p4430
I6476
sS'analyst'
p4431
I1705
sS'fort'
p4432
I2464
sS'builds'
p4433
I6215
sS'attached'
p4434
I6214
sS'coned'
p4435
I6652
sS'daddy'
p4436
I2463
sS'sticks'
p4437
I3956
sS'classic'
p4438
I3955
sS'toss'
p4439
I3954
sS'ericsons'
p4440
I6213
sS'covers'
p4441
I2462
sS'drive'
p4442
I481
sS'mid-atlantic'
p4443
I6212
sS'fashioned'
p4444
I6211
sS'awhile'
p4445
I1027
sS'commuting'
p4446
I3953
sS'shit'
p4447
I1422
sS'aunts'
p4448
I6210
sS'agreeing'
p4449
I6209
sS'molester'
p4450
I6208
sS'generally'
p4451
I1663
sS'handed'
p4452
I3952
sS'digital'
p4453
I1662
sS'handicap'
p4454
I6207
sS'dies'
p4455
I2978
sS'felt'
p4456
I835
sS'diet'
p4457
I3951
sS'fell'
p4458
I1661
sS'pierced'
p4459
I7202
sS'weekend'
p4460
I500
sS'died'
p4461
I925
sS'babysitting'
p4462
I3950
sS'jones'
p4463
I2523
sS'forty-two'
p4464
I6205
sS'happening'
p4465
I896
sS'potato'
p4466
I6204
sS'assume'
p4467
I1335
sS'daily'
p4468
I3949
sS'jacket'
p4469
I6203
sS'teeth'
p4470
I2461
sS'parcels'
p4471
I3948
sS'camber'
p4472
I6202
sS'managed'
p4473
I6201
sS'skip'
p4474
I3947
sS'berney'
p4475
I6200
sS'non-guilt'
p4476
I6199
sS'laura'
p4477
I6198
sS'manager'
p4478
I808
sS'mile'
p4479
I2460
sS'skin'
p4480
I6197
sS'shot'
p4481
I895
sS'mill'
p4482
I3946
sS'dismantling'
p4483
I7570
sS'milk'
p4484
I6196
sS'retention'
p4485
I1843
sS'depend'
p4486
I1421
sS'certification'
p4487
I6081
sS'father'
p4488
I1262
sS'disgusting'
p4489
I2976
sS'countdown'
p4490
I6194
sS'answered'
p4491
I1660
sS'finally'
p4492
I1130
sS'me'
p4493
I65
sS"we've"
p4494
I1165
sS'ma'
p4495
I1639
sS'twenty-one'
p4496
I1920
sS'legalization'
p4497
I6192
sS'did'
p4498
I70
sS'die'
p4499
I1129
sS'dif'
p4500
I6191
sS'dig'
p4501
I1659
sS'specials'
p4502
I3069
sS'item'
p4503
I2459
sS'brownish'
p4504
I6188
sS"hogan's"
p4505
I6187
sS'round'
p4506
I1842
sS"it'll"
p4507
I1197
sS'talked'
p4508
I327
sS'nineties'
p4509
I3945
sS'dealing'
p4510
I1334
sS'pregnancies'
p4511
I6186
sS'inconsequential'
p4512
I6185
sS'forensics'
p4513
I6184
sS'currant'
p4514
I3944
sS'eating'
p4515
I863
sS'bacterial'
p4516
I3943
sS'targets'
p4517
I6183
sS'majors'
p4518
I2458
sS'adds'
p4519
I3942
sS'suspect'
p4520
I6182
sS'booklet'
p4521
I6641
sS'international'
p4522
I1658
sS'stepping'
p4523
I7433
sS'filled'
p4524
I2457
sS'transportation'
p4525
I3941
sS'makeup'
p4526
I2456
sS'french'
p4527
I750
sS'congestion'
p4528
I2975
sS'decipher'
p4529
I6181
sS'easton'
p4530
I775
sS'wait'
p4531
I484
sS'box'
p4532
I2099
sS'boy'
p4533
I611
sS'hbo'
p4534
I6180
sS'jazzy'
p4535
I6179
sS'institute'
p4536
I2455
sS'shift'
p4537
I774
sS'mail-ins'
p4538
I6178
sS'bot'
p4539
I6177
sS'bow'
p4540
I6176
sS'diagnosed'
p4541
I6175
sS'suggestion'
p4542
I6174
sS'bob'
p4543
I1196
sS'wilkes'
p4544
I6173
sS'teenage'
p4545
I6172
sS'useful'
p4546
I6171
sS'statewide'
p4547
I6170
sS'contradictions'
p4548
I6169
sS'professorships'
p4549
I6168
sS'hotels'
p4550
I6167
sS'everybody'
p4551
I230
sS'wealth'
p4552
I4096
sS'sake'
p4553
I6165
sS'pluses'
p4554
I3940
sS'visit'
p4555
I1345
sS'offside'
p4556
I5107
sS'scenarios'
p4557
I6164
sS'insider'
p4558
I6163
sS'aries'
p4559
I3939
sS"jeff's"
p4560
I3938
sS'blotchy'
p4561
I6162
sS'sharing'
p4562
I6161
sS'phillies'
p4563
I1657
sS'curriculum'
p4564
I2098
sS'ooh'
p4565
I6160
sS'downtown'
p4566
I1195
sS'olive'
p4567
I2453
sS'effort'
p4568
I3937
sS'fly'
p4569
I1684
sS'flu'
p4570
I3936
sS'soul'
p4571
I6158
sS'soun'
p4572
I6157
sS'reviews'
p4573
I6156
sS'soup'
p4574
I6155
sS'romanticized'
p4575
I6154
sS'growing'
p4576
I894
sS'making'
p4577
I326
sS'dosage'
p4578
I6153
sS"denny's"
p4579
I6152
sS'claim'
p4580
I2097
sS'crazy'
p4581
I486
sS'ordeal'
p4582
I4885
sS'predict'
p4583
I6150
sS'lordy'
p4584
I6149
sS'confused'
p4585
I2452
sS'agent'
p4586
I6148
sS'sample'
p4587
I6147
sS'drawer'
p4588
I6146
sS'council'
p4589
I6145
sS'dennis'
p4590
I1867
sS'ma-'
p4591
I6143
sS'craze'
p4592
I6142
sS'pink'
p4593
I2451
sS'inundated'
p4594
I6141
sS'nyu'
p4595
I3934
sS'chemical'
p4596
I3933
sS'till'
p4597
I2973
sS'sunday'
p4598
I773
sS"rendell's"
p4599
I6140
sS'skates'
p4600
I4063
sS'pins'
p4601
I3932
sS'map'
p4602
I2972
sS'staying'
p4603
I1260
sS'designer'
p4604
I6138
sS'may'
p4605
I463
sS'max'
p4606
I2971
sS'accessory'
p4607
I2970
sS'mac'
p4608
I2096
sS'mad'
p4609
I2450
sS'croydon'
p4610
I7247
sS'guys'
p4611
I368
sS'grow'
p4612
I731
sS'man'
p4613
I311
sS'neck'
p4614
I6137
sS'maybe'
p4615
I164
sS'exterminator'
p4616
I6136
sS'q'
p4617
I6135
sS'switch'
p4618
I1841
sS'jail'
p4619
I988
sS'sitcoms'
p4620
I6134
sS'african'
p4621
I1840
sS'basket'
p4622
I3931
sS'tall'
p4623
I3930
sS'talk'
p4624
I158
sS'cute'
p4625
I1072
sS'shoes'
p4626
I2449
sS'distributors'
p4627
I6132
sS'pointed'
p4628
I6131
sS'wishing'
p4629
I2969
sS'cuts'
p4630
I4042
sS'argued'
p4631
I6129
sS'consolidating'
p4632
I6128
sS'group'
p4633
I573
sS'thank'
p4634
I779
sS'interesting'
p4635
I334
sS"neighbor's"
p4636
I6127
sS'gen'
p4637
I6071
sS'policy'
p4638
I3928
sS'mail'
p4639
I862
sS'msnbc'
p4640
I6126
sS'main'
p4641
I924
sS'texas'
p4642
I1134
sS'emailed'
p4643
I6124
sS'finance'
p4644
I1070
sS'killer'
p4645
I6123
sS'sooner'
p4646
I2448
sS'lunch'
p4647
I1340
sS'killed'
p4648
I749
sS'teller'
p4649
I6121
sS'rock'
p4650
I923
sS'pharmacies'
p4651
I6120
sS'badly'
p4652
I3927
sS'abnormal'
p4653
I5246
sS'agis'
p4654
I6118
sS'girl'
p4655
I483
sS'canada'
p4656
I2492
sS'living'
p4657
I426
sS'jackson'
p4658
I3925
sS'ripe'
p4659
I7292
sS'stupid'
p4660
I807
sS'imperative'
p4661
I4866
sS'dutch'
p4662
I3923
sS'patenting'
p4663
I6117
sS'correct'
p4664
I1026
sS'wisest'
p4665
I6757
sS'romana'
p4666
I6116
sS'earlier'
p4667
I1419
sS'monster'
p4668
I3922
sS'take-overs'
p4669
I4878
sS'chiles'
p4670
I6115
sS'pumping'
p4671
I6114
sS'brooks'
p4672
I3920
sS'spiel'
p4673
I6113
sS'california'
p4674
I772
sS'demanding'
p4675
I6112
sS'gots'
p4676
I3919
sS'cough'
p4677
I171
sS'keith'
p4678
I6110
sS'advance'
p4679
I6109
sS'language'
p4680
I482
sS'waiter'
p4681
I3918
sS'surgeries'
p4682
I7729
sS'listings'
p4683
I6108
sS'holyfield'
p4684
I3917
sS'thing'
p4685
I108
sS'loretta'
p4686
I3916
sS'think'
p4687
I37
sS"anything's"
p4688
I6107
sS'first'
p4689
I129
sS'exotic'
p4690
I2447
sS'cheese'
p4691
I2967
sS'americans'
p4692
I6106
sS'fast'
p4693
I861
sS'carry'
p4694
I2446
sS'sounds'
p4695
I396
sS'cheesy'
p4696
I3915
sS'little'
p4697
I109
sS'reamed'
p4698
I6105
sS'bo-bo'
p4699
I6104
sS'slept'
p4700
I2966
sS'anyone'
p4701
I710
sS'moisture'
p4702
I6103
sS'individ'
p4703
I6102
sS'participated'
p4704
I2965
sS'speaking'
p4705
I1128
sS'prettier'
p4706
I4875
sS'eyes'
p4707
I2445
sS'eight-thirty'
p4708
I6101
sS'steinbeck'
p4709
I6100
sS'hillary'
p4710
I6099
sS'sequels'
p4711
I6098
sS'butt'
p4712
I2964
sS'stipulation'
p4713
I6066
sS'undoubtedly'
p4714
I6097
sS"here's"
p4715
I3913
sS'ceramics'
p4716
I6096
sS'cracks'
p4717
I6095
sS'sailing'
p4718
I6094
sS'scraping'
p4719
I2963
sS'gotta'
p4720
I1418
sS'knives'
p4721
I2962
sS'booted'
p4722
I6093
sS'venture'
p4723
I3912
sS'were'
p4724
I98
sS'gigantic'
p4725
I6092
sS'gathering'
p4726
I3974
sS'mountains'
p4727
I3910
sS'topics'
p4728
I582
sS'marijuana'
p4729
I860
sS'voices'
p4730
I2095
sS'winding'
p4731
I6090
sS'comedian'
p4732
I6089
sS'occupied'
p4733
I6088
sS'kevin'
p4734
I2444
sS'supermarkets'
p4735
I7177
sS'speakers'
p4736
I3908
sS'efficient'
p4737
I3907
sS'answering'
p4738
I1839
sS'upgrading'
p4739
I3906
sS'shocked'
p4740
I2961
sS'potential'
p4741
I3905
sS'performance'
p4742
I1542
sS'switching'
p4743
I2443
sS'channel'
p4744
I1069
sS'ultimate'
p4745
I3674
sS'pain'
p4746
I1025
sS'trace'
p4747
I6087
sS'normal'
p4748
I1127
sS'track'
p4749
I1073
sS'paid'
p4750
I462
sS'sheets'
p4751
I6086
sS'complaints'
p4752
I2100
sS'beth'
p4753
I2959
sS'queens'
p4754
I2442
sS"sprint's"
p4755
I6084
sS'especially'
p4756
I356
sS'surprising'
p4757
I2094
sS'gracefully'
p4758
I6083
sS'larry'
p4759
I841
sS'voodoo'
p4760
I3901
sS'wreathes'
p4761
I2093
sS'shop'
p4762
I1838
sS'playoffs'
p4763
I3900
sS'shou'
p4764
I6082
sS'show'
p4765
I529
sS'contemporary'
p4766
I6080
sS'rep.'
p4767
I6079
sS'lampley'
p4768
I3899
sS'shoe'
p4769
I3898
sS'corner'
p4770
I1126
sS'shoo'
p4771
I6078
sS'whereabouts'
p4772
I6062
sS'dick'
p4773
I6077
sS'storms'
p4774
I6076
sS'behind'
p4775
I748
sS'spirituality'
p4776
I6075
sS'black'
p4777
I610
sS'pegged'
p4778
I6074
sS'collateral'
p4779
I7008
sS'get'
p4780
I52
sS'contracts'
p4781
I3896
sS'reps'
p4782
I2441
sS'employers'
p4783
I2440
sS"voicestream's"
p4784
I3895
sS'nearly'
p4785
I6133
sS'gee'
p4786
I3894
sS'ged'
p4787
I6073
sS'geo'
p4788
I6072
sS"tuesday's"
p4789
I5024
sS'secondary'
p4790
I2438
sS'lame'
p4791
I5723
sS'busiest'
p4792
I6070
sS'morning'
p4793
I499
sS'miles'
p4794
I1259
sS'finishing'
p4795
I6069
sS'motorolas'
p4796
I6068
sS'honesty'
p4797
I2958
sS'enco'
p4798
I6067
sS'seat'
p4799
I3914
sS'relative'
p4800
I2092
sS'j-'
p4801
I6065
sS'sean'
p4802
I1656
sS'emulating'
p4803
I6064
sS'wonder'
p4804
I477
sS'indicted'
p4805
I6063
sS'camping'
p4806
I2437
sS'label'
p4807
I3893
sS"father's"
p4808
I3897
sS'enough'
p4809
I315
sS'apparition'
p4810
I6061
sS'reading'
p4811
I541
sS'checks'
p4812
I1358
sS'august'
p4813
I2957
sS'parent'
p4814
I1125
sS'parental'
p4815
I3892
sS'ju'
p4816
I1194
sS'killing'
p4817
I1193
sS'nationality'
p4818
I2956
sS'pharmacists'
p4819
I6060
sS'lopez'
p4820
I2953
sS'coupons'
p4821
I6059
sS'jfk'
p4822
I3891
sS'catasopra'
p4823
I5111
sS'curtainmall'
p4824
I6057
sS'trader'
p4825
I6056
sS'according'
p4826
I2436
sS'tour'
p4827
I2091
sS'steroid'
p4828
I6055
sS'dated'
p4829
I2952
sS'holders'
p4830
I2090
sS'among'
p4831
I6053
sS'forecasting'
p4832
I6052
sS'cancer'
p4833
I2089
sS'menacing'
p4834
I7712
sS'maintained'
p4835
I6051
sS'grants'
p4836
I6050
sS'arcades'
p4837
I6049
sS'freak'
p4838
I2435
sS'nose'
p4839
I4478
sS'considering'
p4840
I1541
sS'arts'
p4841
I1192
sS'tuning'
p4842
I6047
sS'capable'
p4843
I3012
sS'ja'
p4844
I2955
sS'mart'
p4845
I6045
sS'walkable'
p4846
I5482
sS'barre'
p4847
I5979
sS'acre'
p4848
I5977
sS'arti'
p4849
I6042
sS'employments'
p4850
I6041
sS'mary'
p4851
I6040
sS'disappointed'
p4852
I6039
sS'educated'
p4853
I1258
sS'shopping'
p4854
I596
sS'bmg'
p4855
I3889
sS'precautions'
p4856
I5363
sS'offered'
p4857
I1417
sS'laptops'
p4858
I6038
sS'wake'
p4859
I3888
sS'overdose'
p4860
I6037
sS'hardcore'
p4861
I6036
sS'those'
p4862
I175
sS'sound'
p4863
I565
sS'plastering'
p4864
I5956
sS'disconnected'
p4865
I2434
sS'x-files'
p4866
I6034
sS'coca'
p4867
I3887
sS'residence'
p4868
I6033
sS'cancelled'
p4869
I6032
sS'twent'
p4870
I6031
sS'versus'
p4871
I7167
sS'eventually'
p4872
I1655
sS'strait'
p4873
I6030
sS'coffee'
p4874
I3886
sS'sleeping'
p4875
I1837
sS'middle'
p4876
I709
sS'sudden'
p4877
I1024
sS'baths'
p4878
I6029
sS'protein'
p4879
I3885
sS'obnoxious'
p4880
I6028
sS'everyday'
p4881
I708
sS'tourist'
p4882
I3673
sS'bags'
p4883
I2088
sS'different'
p4884
I149
sS'harsh'
p4885
I2087
sS'doctor'
p4886
I1654
sS'pax'
p4887
I3884
sS'pay'
p4888
I279
sS'broadhead'
p4889
I1416
sS'same'
p4890
I190
sS'speech'
p4891
I1397
sS'stepped'
p4892
I2422
sS'jackfrost'
p4893
I6024
sS'pan'
p4894
I3883
sS'disappointment'
p4895
I6054
sS'jeffrey'
p4896
I2951
sS'oil'
p4897
I2923
sS'running'
p4898
I581
sS'tele-sales'
p4899
I1540
sS'climbing'
p4900
I6022
sS'totally'
p4901
I461
sS'muncy'
p4902
I6021
sS'drain'
p4903
I6020
sS'hispanics'
p4904
I7164
sS'macro'
p4905
I3826
sS'bang'
p4906
I4284
sS'mortgages'
p4907
I3880
sS'mann'
p4908
I3879
sS'bottle'
p4909
I6019
sS'pa-'
p4910
I6018
sS'amazed'
p4911
I2950
sS'shameful'
p4912
I6017
sS'gates'
p4913
I6016
sS'outdoor'
p4914
I2949
sS'gangs'
p4915
I2948
sS'money'
p4916
I146
sS'adjustments'
p4917
I6015
sS'aspect'
p4918
I1539
sS'flavor'
p4919
I6014
sS'barbados'
p4920
I6013
sS'asthma'
p4921
I5853
sS'rental'
p4922
I6011
sS'extensive'
p4923
I6010
sS'heavier'
p4924
I3878
sS'pill'
p4925
I6009
sS'careers'
p4926
I6008
sS'mos'
p4927
I6006
sS'income'
p4928
I1332
sS'mov'
p4929
I6005
sS'admitting'
p4930
I6004
sS'grandstanding'
p4931
I6003
sS'mon'
p4932
I2947
sS'mom'
p4933
I489
sS'secrecy'
p4934
I6002
sS'railroad'
p4935
I6001
sS'aiming'
p4936
I6000
sS'blankets'
p4937
I5999
sS'mod'
p4938
I5998
sS'vending'
p4939
I5997
sS'thorpe'
p4940
I3876
sS'audience'
p4941
I2086
sS'either'
p4942
I267
sS'served'
p4943
I3875
sS'jews'
p4944
I5996
sS'witchcraft'
p4945
I4524
sS'outlive'
p4946
I7033
sS'dole'
p4947
I5994
sS'images'
p4948
I5993
sS'joan'
p4949
I5992
sS'accomplice'
p4950
I5991
sS'booming'
p4951
I5990
sS'gross'
p4952
I5989
sS'outs'
p4953
I5988
sS'anyplace'
p4954
I6048
sS'wilmington'
p4955
I3183
sS'knife'
p4956
I5987
sS'seconds'
p4957
I954
sS'unusual'
p4958
I2954
sS'broken'
p4959
I2085
sS'roaming'
p4960
I1191
sS'manufacturer'
p4961
I2946
sS'regulations'
p4962
I3874
sS'son-in-law'
p4963
I3873
sS'stations'
p4964
I2084
sS'roar'
p4965
I5986
sS'island'
p4966
I707
sS'uh-uh'
p4967
I3872
sS'violence'
p4968
I2945
sS'insect'
p4969
I2944
sS'practical'
p4970
I3871
sS'roam'
p4971
I5985
sS'mixed'
p4972
I3870
sS'road'
p4973
I859
sS'decimated'
p4974
I5984
sS'whites'
p4975
I3869
sS'blessed'
p4976
I3868
sS'strip'
p4977
I5692
sS'mark'
p4978
I3867
sS'pharmaceutical'
p4979
I3866
sS'deadlines'
p4980
I3865
sS'appears'
p4981
I2816
sS'mondays'
p4982
I5981
sS'marlboros'
p4983
I5980
sS'wobbly'
p4984
I6044
sS'gory'
p4985
I3864
sS"matt's"
p4986
I5978
sS'mars'
p4987
I6043
sS'fricken'
p4988
I5976
sS'strikes'
p4989
I3863
sS'bookstore'
p4990
I5975
sS'striked'
p4991
I5974
sS'downstairs'
p4992
I2943
sS'spice'
p4993
I3862
sS'romantic'
p4994
I2725
sS"wasn't"
p4995
I527
sS"brother's"
p4996
I5972
sS'vhi'
p4997
I5971
sS'emissions'
p4998
I5970
sS'suitcase'
p4999
I5969
sS'acclimated'
p5000
I3861
sS'videos'
p5001
I1415
sS'deer'
p5002
I1124
sS'deep'
p5003
I1835
sS'general'
p5004
I1190
sS'imagination'
p5005
I3860
sS'examine'
p5006
I5968
sS'file'
p5007
I4490
sS'girlfriend'
p5008
I1123
sS'lifetime'
p5009
I2432
sS'deterrent'
p5010
I2942
sS'film'
p5011
I1414
sS'fill'
p5012
I2431
sS'tedious'
p5013
I5966
sS'again'
p5014
I314
sS'allentown'
p5015
I372
sS'drivers'
p5016
I3859
sS'field'
p5017
I595
sS'brando'
p5018
I5965
sS'students'
p5019
I747
sS'important'
p5020
I513
sS"she's"
p5021
I410
sS'chris'
p5022
I2430
sS'sneeze'
p5023
I1189
sS'assets'
p5024
I5964
sS'u'
p5025
I669
sS'alright'
p5026
I250
sS'starting'
p5027
I804
sS'motel'
p5028
I5963
sS'represent'
p5029
I2083
sS'colleges'
p5030
I834
sS'forget'
p5031
I534
sS'suburban'
p5032
I2941
sS'dollar'
p5033
I609
sS'katz'
p5034
I3929
sS'commute'
p5035
I1188
sS'talks'
p5036
I2940
sS'expressions'
p5037
I5961
sS'children'
p5038
I324
sS'prolongs'
p5039
I5960
sS'reluctant'
p5040
I5959
sS'ninet'
p5041
I5958
sS'enjoying'
p5042
I2939
sS"bozo's"
p5043
I5957
sS'sitting'
p5044
I549
sS'fall'
p5045
I1122
sS'difference'
p5046
I746
sS'ramen'
p5047
I5955
sS'steve'
p5048
I2727
sS'washing'
p5049
I3858
sS'mothers'
p5050
I2082
sS'almo'
p5051
I5952
sS'farms'
p5052
I6608
sS'reminding'
p5053
I5466
sS'neighborhood'
p5054
I987
sS'portable'
p5055
I5949
sS'straighten'
p5056
I7700
sS'knitted'
p5057
I5948
sS'burger'
p5058
I3857
sS'zero'
p5059
I2429
sS'perspective'
p5060
I5947
sS'lawyer'
p5061
I1121
sS'further'
p5062
I2080
sS'cigars'
p5063
I2079
sS'dial'
p5064
I2936
sS'abc'
p5065
I3856
sS'stood'
p5066
I1834
sS'sides'
p5067
I2219
sS'stool'
p5068
I5946
sS'abo'
p5069
I5945
sS'abs'
p5070
I5944
sS'activations'
p5071
I1331
sS'public'
p5072
I421
sS'movement'
p5073
I5943
sS'outgoing'
p5074
I1023
sS'ranger'
p5075
I3855
sS'operating'
p5076
I3854
sS'search'
p5077
I2428
sS'bible'
p5078
I2078
sS'inheritance'
p5079
I5942
sS'stretching'
p5080
I5941
sS'stella'
p5081
I5940
sS'airport'
p5082
I1413
sS'tele'
p5083
I7861
sS'published'
p5084
I5939
sS'diffi'
p5085
I5938
sS'aria'
p5086
I5937
sS'buses'
p5087
I5936
sS'transit'
p5088
I3853
sS'africa'
p5089
I1187
sS'rican'
p5090
I3852
sS'suits'
p5091
I5935
sS'establish'
p5092
I3851
sS'dachshund'
p5093
I5934
sS'readily'
p5094
I3850
sS'trish'
p5095
I5933
sS'eye'
p5096
I3849
sS'wiped'
p5097
I3848
sS'two'
p5098
I127
sS'comparing'
p5099
I5932
sS'depen'
p5100
I3847
sS'purse'
p5101
I4494
sS'mankind'
p5102
I4060
sS"family's"
p5103
I2427
sS'admissions'
p5104
I2934
sS'landed'
p5105
I5931
sS"ain't"
p5106
I1257
sS'varying'
p5107
I5323
sS'bye-bye'
p5108
I3846
sS'nineteen'
p5109
I1538
sS'town'
p5110
I509
sS'none'
p5111
I771
sS'hour'
p5112
I401
sS"friendly's"
p5113
I7697
sS'dep'
p5114
I3845
sS'recall'
p5115
I2077
sS'exhi'
p5116
I5930
sS'specializes'
p5117
I5311
sS'sucks'
p5118
I2076
sS'pressing'
p5119
I5929
sS'dem'
p5120
I5928
sS'def'
p5121
I2933
sS'compare'
p5122
I1537
sS'galleries'
p5123
I3844
sS'share'
p5124
I1653
sS'suburbia'
p5125
I5455
sS'pre-judge'
p5126
I5927
sS'minimum'
p5127
I447
sS'numbers'
p5128
I2075
sS'purchased'
p5129
I2932
sS'sharp'
p5130
I3843
sS'robinson'
p5131
I5926
sS'seventy-sixers'
p5132
I5925
sS'needs'
p5133
I1186
sS'awkward'
p5134
I2425
sS'acts'
p5135
I5924
sS'smse'
p5136
I5923
sS'actu'
p5137
I2931
sS'responsibilities'
p5138
I7386
sS'commercial'
p5139
I6587
sS'stir'
p5140
I5922
sS'ensemble'
p5141
I5921
sS'take-over'
p5142
I5920
sS'par'
p5143
I2930
sS'questioning'
p5144
I2929
sS'trolleys'
p5145
I4078
sS'coming'
p5146
I348
sS'response'
p5147
I2073
sS'chute'
p5148
I5919
sS'brady'
p5149
I3842
sS'hypnotized'
p5150
I5918
sS'crowded'
p5151
I2072
sS"that'd"
p5152
I3841
sS'coat'
p5153
I5917
sS'eats'
p5154
I5916
sS'deserted'
p5155
I2928
sS'coal'
p5156
I3840
sS'responsibility'
p5157
I1536
sS'turnpike'
p5158
I2424
sS'pleasure'
p5159
I5915
sS'playing'
p5160
I526
sS"that's"
p5161
I75
sS'excepted'
p5162
I5914
sS'swamped'
p5163
I5913
sS'radar'
p5164
I5912
sS'industrial'
p5165
I5453
sS'through'
p5166
I204
sS'deterring'
p5167
I5911
sS'suffer'
p5168
I2317
sS'attacking'
p5169
I5909
sS'golfing'
p5170
I5908
sS'messed'
p5171
I2927
sS'pests'
p5172
I2423
sS'pcs'
p5173
I1652
sS'late'
p5174
I893
sS'messes'
p5175
I5907
sS'penn'
p5176
I351
sS'carpentry'
p5177
I3839
sS'goof'
p5178
I5906
sS'hurting'
p5179
I3838
sS'good'
p5180
I71
sS'seeking'
p5181
I5905
sS'males'
p5182
I3837
sS'socially'
p5183
I5904
sS'oka'
p5184
I3836
sS'walls'
p5185
I1789
sS'oxford'
p5186
I3835
sS'attending'
p5187
I6538
sS'complain'
p5188
I1624
sS'association'
p5189
I2784
sS'mystery'
p5190
I2926
sS'easily'
p5191
I2071
sS'pregnant'
p5192
I1330
sS'token'
p5193
I5902
sS'habits'
p5194
I2925
sS'gender'
p5195
I2421
sS'ports'
p5196
I3834
sS'harm'
p5197
I2070
sS'everyone'
p5198
I393
sS'mental'
p5199
I5900
sS'house'
p5200
I228
sS'energy'
p5201
I2924
sS'hard'
p5202
I229
sS'idea'
p5203
I371
sS'extended'
p5204
I2039
sS'connect'
p5205
I2922
sS'sixers'
p5206
I4277
sS'perry'
p5207
I5899
sS'funding'
p5208
I1651
sS'remodelling'
p5209
I5898
sS'acting'
p5210
I2008
sS"they'll"
p5211
I986
sS'pathetic'
p5212
I2921
sS'circumstance'
p5213
I2920
sS'commits'
p5214
I5897
sS'cra-'
p5215
I6571
sS'cockroach'
p5216
I2068
sS'pleasant'
p5217
I2919
sS'extraordinary'
p5218
I3504
sS'disneyland'
p5219
I2067
sS'members'
p5220
I2066
sS'backed'
p5221
I3832
sS'beginning'
p5222
I921
sS'benefits'
p5223
I1119
sS'palmerton'
p5224
I5895
sS'computers'
p5225
I685
sS'lunatic'
p5226
I7288
sS'stepmother'
p5227
I5028
sS'instances'
p5228
I1650
sS'done'
p5229
I242
sS'wages'
p5230
I3831
sS'tou'
p5231
I5894
sS'divorce'
p5232
I2420
sS'least'
p5233
I296
sS'paint'
p5234
I2918
sS'jetta'
p5235
I1833
sS'statement'
p5236
I2917
sS'mama'
p5237
I5893
sS'ton'
p5238
I3830
sS'lease'
p5239
I2916
sS'park'
p5240
I803
sS'dentist'
p5241
I3829
sS'part'
p5242
I239
sS'doctors'
p5243
I3013
sS'believe'
p5244
I215
sS'b'
p5245
I655
sS'horizons'
p5246
I3828
sS'gotten'
p5247
I395
sS'youth'
p5248
I3827
sS'supposed'
p5249
I283
sS'sedate'
p5250
I5891
sS'amazes'
p5251
I3881
sS'treated'
p5252
I1832
sS'twenty-twenty'
p5253
I4939
sS'outta'
p5254
I5889
sS'ages'
p5255
I2419
sS'illiterate'
p5256
I5888
sS'fading'
p5257
I3456
sS'mountain'
p5258
I2064
sS'built'
p5259
I1412
sS'depending'
p5260
I745
sS'philadel'
p5261
I5886
sS'couch'
p5262
I3825
sS'majority'
p5263
I3824
sS'build'
p5264
I2063
sS"fiancee's"
p5265
I5885
sS'godfather'
p5266
I3443
sS'eggs'
p5267
I3823
sS'mosh'
p5268
I4888
sS'most'
p5269
I263
sS'moss'
p5270
I3822
sS'compu'
p5271
I5882
sS'services'
p5272
I1831
sS'eskimo'
p5273
I5881
sS'extremely'
p5274
I1649
sS'refrigerator'
p5275
I3821
sS'ka'
p5276
I5880
sS'ke'
p5277
I5879
sS'ki'
p5278
I2418
sS'kn'
p5279
I3820
sS'verbally'
p5280
I5805
sS'cramped'
p5281
I5878
sS'chester'
p5282
I5877
sS'weigh'
p5283
I5876
sS'joining'
p5284
I5875
sS'thomas'
p5285
I3819
sS'particularly'
p5286
I1830
sS'scattered'
p5287
I2915
sS'relation'
p5288
I3818
sS'acceptability'
p5289
I5874
sS'carefully'
p5290
I3423
sS'jared'
p5291
I2417
sS'headlines'
p5292
I3421
sS"man's"
p5293
I2914
sS'fine'
p5294
I419
sS'find'
p5295
I287
sS'giant'
p5296
I3816
sS'merger'
p5297
I953
sS'townspeople'
p5298
I4825
sS'ruin'
p5299
I2913
sS'fullerton'
p5300
I5872
sS'unhappy'
p5301
I2912
sS'freedoms'
p5302
I5871
sS'idiots'
p5303
I5870
sS'merged'
p5304
I2416
sS'boulder'
p5305
I5869
sS'batted'
p5306
I5868
sS'permission'
p5307
I3815
sS'express'
p5308
I2415
sS'cheaper'
p5309
I833
sS'ferret'
p5310
I5867
sS'theft'
p5311
I3814
sS'degreasers'
p5312
I5866
sS'sill'
p5313
I5865
sS'siln'
p5314
I5864
sS'forty-five'
p5315
I1829
sS'resolve'
p5316
I3813
sS"physician's"
p5317
I4778
sS'collapsed'
p5318
I6629
sS'common'
p5319
I2911
sS'fuel'
p5320
I6493
sS'archaeologist'
p5321
I2414
sS'mouthwash'
p5322
I5862
sS'restaurants'
p5323
I1535
sS'remington'
p5324
I7268
sS'devils'
p5325
I5861
sS'individual'
p5326
I1068
sS'disappropriate'
p5327
I5860
sS'visiting'
p5328
I2413
sS'bridgewater'
p5329
I3812
sS'please'
p5330
I1185
sS'powerhouse'
p5331
I4728
sS'fans'
p5332
I2910
sS'smallest'
p5333
I5859
sS'burned'
p5334
I1328
sS'donate'
p5335
I2909
sS'transfered'
p5336
I4717
sS'responses'
p5337
I5858
sS'pisser'
p5338
I4709
sS'dividends'
p5339
I5856
sS'nashville'
p5340
I5855
sS'shaman'
p5341
I5854
sS'clueless'
p5342
I6012
sS'pissed'
p5343
I3811
sS'full-time'
p5344
I3810
sS'reverse'
p5345
I5852
sS'restaurant'
p5346
I952
sS'foreign'
p5347
I1021
sS'kitchens'
p5348
I5851
sS'baltimore'
p5349
I2062
sS'upgraded'
p5350
I2411
sS'supply'
p5351
I4690
sS'simple'
p5352
I1648
sS'recycling'
p5353
I1184
sS'newborn'
p5354
I5850
sS'pamphlet'
p5355
I3809
sS'simply'
p5356
I1411
sS'volunteered'
p5357
I5849
sS'throughout'
p5358
I1827
sS'expensive'
p5359
I626
sS'headaches'
p5360
I5848
sS'consuming'
p5361
I5847
sS'raise'
p5362
I1410
sS'pocketbook'
p5363
I3808
sS'create'
p5364
I2410
sS'trilogy'
p5365
I5846
sS'creativity'
p5366
I5845
sS'secret'
p5367
I3807
sS'dropping'
p5368
I5844
sS'ireland'
p5369
I2061
sS'meeting'
p5370
I1826
sS'gay'
p5371
I5843
sS'schizo'
p5372
I3806
sS'gas'
p5373
I1825
sS'fayed'
p5374
I5842
sS'gap'
p5375
I3347
sS'understand'
p5376
I333
sS'prices'
p5377
I1604
sS'chatter'
p5378
I5839
sS'nukem'
p5379
I3805
sS'pierce'
p5380
I2907
sS'politician'
p5381
I5838
sS'bill'
p5382
I706
sS'holocaust'
p5383
I5837
sS'replaced'
p5384
I5836
sS'fun'
p5385
I299
sS'rap'
p5386
I2409
sS'century'
p5387
I5835
sS'cents'
p5388
I1409
sS'encountered'
p5389
I3804
sS'itself'
p5390
I1255
sS'italy'
p5391
I2408
sS'non-smoker'
p5392
I2906
sS'butcher'
p5393
I3803
sS'lenient'
p5394
I2905
sS'ray'
p5395
I2407
sS'development'
p5396
I1824
sS'strips'
p5397
I5834
sS'keys'
p5398
I5833
sS'assignment'
p5399
I2406
sS'yesterday'
p5400
I580
sS'husbands'
p5401
I3802
sS'moment'
p5402
I2246
sS'purpose'
p5403
I2405
sS'peachy'
p5404
I5831
sS'breathalyzer'
p5405
I5830
sS'sandals'
p5406
I5829
sS'werewolf'
p5407
I5828
sS'percentages'
p5408
I3801
sS'spent'
p5409
I1183
sS'flags'
p5410
I2060
sS'withdraw'
p5411
I5827
sS'y'
p5412
I202
sS'organization'
p5413
I2404
sS'spend'
p5414
I744
sS'temperamental'
p5415
I5826
sS'darn'
p5416
I2221
sS'ldc'
p5417
I1823
sS'ludicrous'
p5418
I3800
sS'isolated'
p5419
I3799
sS'distracting'
p5420
I3798
sS'shape'
p5421
I1534
sS'openly'
p5422
I5824
sS'scrooge'
p5423
I2904
sS'alternative'
p5424
I3797
sS'letting'
p5425
I3796
sS'cut'
p5426
I520
sS'cus'
p5427
I5823
sS'cup'
p5428
I3795
sS'hated'
p5429
I2903
sS'adjusters'
p5430
I5822
sS'forbid'
p5431
I3793
sS'studious'
p5432
I3792
sS'cub'
p5433
I3791
sS'administrative'
p5434
I2403
sS'excited'
p5435
I2402
sS'hates'
p5436
I5821
sS'shoved'
p5437
I5820
sS'big'
p5438
I189
sS'displace'
p5439
I5819
sS'chooco'
p5440
I3790
sS'matters'
p5441
I2401
sS'bit'
p5442
I233
sS"div's"
p5443
I5818
sS'knock'
p5444
I5817
sS'semi'
p5445
I5816
sS'forty-four'
p5446
I5815
sS'indication'
p5447
I5814
sS'neatest'
p5448
I5813
sS'olney'
p5449
I2902
sS'foolish'
p5450
I5812
sS'ninety-four'
p5451
I5811
sS'often'
p5452
I802
sS'collectors'
p5453
I5810
sS'absolutely'
p5454
I381
sS"who've"
p5455
I4852
sS'pricing'
p5456
I3789
sS'ourselves'
p5457
I5809
sS'minefield'
p5458
I5808
sS'scale'
p5459
I3788
sS'pet'
p5460
I3294
sS'affects'
p5461
I2059
sS'decision'
p5462
I1020
sS'proficient'
p5463
I5807
sS'per'
p5464
I892
sS'cast'
p5465
I5806
sS'newark'
p5466
I2400
sS'pen'
p5467
I2058
sS'connecting'
p5468
I2901
sS'eliminate'
p5469
I4543
sS'pee'
p5470
I5804
sS'laughing'
p5471
I3786
sS'patient'
p5472
I5803
sS'ufo'
p5473
I1647
sS'remembered'
p5474
I2900
sS'continuing'
p5475
I2899
sS'use'
p5476
I227
sS"union's"
p5477
I5802
sS'hotwheels'
p5478
I5801
sS'from'
p5479
I88
sS'hypnotize'
p5480
I5800
sS'graduation'
p5481
I3785
sS'drama'
p5482
I2896
sS'pe-'
p5483
I5799
sS'ounce'
p5484
I5798
sS'beans'
p5485
I5797
sS'jimmy'
p5486
I5796
sS'grammy'
p5487
I5795
sS'harassed'
p5488
I5794
sS'techie'
p5489
I5793
sS'aliens'
p5490
I3784
sS'satisfactory'
p5491
I7676
sS'invading'
p5492
I5791
sS'steven'
p5493
I5790
sS'frames'
p5494
I5789
sS'lesson'
p5495
I2895
sS'downhill'
p5496
I5788
sS'warkeiser'
p5497
I5787
sS'few'
p5498
I350
sS'openers'
p5499
I5786
sS'leesport'
p5500
I5785
sS'pharmaceuticals'
p5501
I5784
sS'pronunciation'
p5502
I5783
sS'forward'
p5503
I1327
sS'bored'
p5504
I1646
sS'crab'
p5505
I3037
sS'boys'
p5506
I1182
sS'switchboard'
p5507
I1645
sS'hopes'
p5508
I5782
sS'jags'
p5509
I5781
sS'originals'
p5510
I5780
sS'planet'
p5511
I2894
sS"tomorrow's"
p5512
I5779
sS'groove'
p5513
I5778
sS'possession'
p5514
I5777
sS'constant'
p5515
I5776
sS'flow'
p5516
I5775
sS'cer'
p5517
I5774
sS"sticky's"
p5518
I5773
sS'single'
p5519
I705
sS'cure'
p5520
I3782
sS'cafe'
p5521
I5772
sS'scorcese'
p5522
I5771
sS'excuses'
p5523
I3781
sS'underweight'
p5524
I5770
sS'conventionally'
p5525
I5769
sS'lend'
p5526
I5768
sS'prepared'
p5527
I2399
sS"guy's"
p5528
I1742
sS'infection'
p5529
I3780
sS'desert'
p5530
I5766
sS'freeways'
p5531
I5765
sS'winstons'
p5532
I3779
sS'teams'
p5533
I1236
sS'cooked'
p5534
I3778
sS'presenting'
p5535
I5763
sS'reserve'
p5536
I4267
sS'minors'
p5537
I4465
sS'tombs'
p5538
I3776
sS'intricate'
p5539
I5762
sS'drive-in'
p5540
I1821
sS'pope'
p5541
I3653
sS'vietnamese'
p5542
I5760
sS'suave'
p5543
I5759
sS'becau'
p5544
I2890
sS'helps'
p5545
I1254
sS'maryland'
p5546
I2056
sS'fatal'
p5547
I4451
sS'queen'
p5548
I2845
sS'presently'
p5549
I5757
sS'dessert'
p5550
I5756
sS'putting'
p5551
I1019
sS'volun'
p5552
I5755
sS'enrollments'
p5553
I5754
sS'surgeon'
p5554
I5753
sS'severely'
p5555
I3775
sS'recreation'
p5556
I2398
sS'respectful'
p5557
I3774
sS'joel'
p5558
I5752
sS'shock'
p5559
I2889
sS"government's"
p5560
I5751
sS'sacrificial'
p5561
I5750
sS'crow'
p5562
I5749
sS'crop'
p5563
I5748
sS'uncomfortable'
p5564
I2055
sS'depression'
p5565
I5747
sS'chicago'
p5566
I2397
sS'giving'
p5567
I858
sS'access'
p5568
I1326
sS'anywhere'
p5569
I593
sS'exercise'
p5570
I2396
sS'body'
p5571
I1644
sS'exchange'
p5572
I1820
sS'sins'
p5573
I5745
sS'broker'
p5574
I3772
sS'packing'
p5575
I4416
sS'healing'
p5576
I2019
sS'others'
p5577
I1795
sS'sing'
p5578
I2395
sS'safer'
p5579
I3770
sS'irritating'
p5580
I5743
sS'extreme'
p5581
I2888
sS'alaska'
p5582
I3769
sS'weekday'
p5583
I5742
sS'implement'
p5584
I3768
sS'honor'
p5585
I1532
sS'courting'
p5586
I5741
sS'named'
p5587
I1942
sS'blizzard'
p5588
I5739
sS'private'
p5589
I1253
sS'decrease'
p5590
I5738
sS'limo'
p5591
I4399
sS'festivals'
p5592
I5737
sS'gateway'
p5593
I5736
sS'gauging'
p5594
I5707
sS'clocking'
p5595
I5735
sS'chi'
p5596
I3767
sS"tk's"
p5597
I5734
sS'chr'
p5598
I5733
sS'debbie'
p5599
I5732
sS'themselves'
p5600
I730
sS'astoria'
p5601
I5731
sS'trail'
p5602
I3766
sS'train'
p5603
I1039
sS'dentistry'
p5604
I5729
sS'tearing'
p5605
I5728
sS'harvest'
p5606
I3765
sS'account'
p5607
I1067
sS'fooling'
p5608
I5727
sS'f'
p5609
I625
sS'obvious'
p5610
I2887
sS'parkway'
p5611
I5449
sS'rehabilitation'
p5612
I5726
sS'bones'
p5613
I5725
sS'native'
p5614
I2393
sS'democracy'
p5615
I5724
sS'noises'
p5616
I4960
sS'jenero'
p5617
I3763
sS'williamsburg'
p5618
I5722
sS'regions'
p5619
I3762
sS'varies'
p5620
I3761
sS'forest'
p5621
I2392
sS'stock'
p5622
I638
sS'profile'
p5623
I1018
sS'buildings'
p5624
I5721
sS'summers'
p5625
I4800
sS'fran'
p5626
I5720
sS'collection'
p5627
I2054
sS'bothered'
p5628
I2391
sS'preferred'
p5629
I7120
sS'communicator'
p5630
I3758
sS'chasing'
p5631
I5718
sS'lines'
p5632
I1325
sS'liner'
p5633
I5717
sS'laurie'
p5634
I2886
sS'bins'
p5635
I5716
sS'despite'
p5636
I3649
sS'renior'
p5637
I5715
sS'symbols'
p5638
I5714
sS'hugged'
p5639
I5713
sS'vividly'
p5640
I5712
sS'galaxy'
p5641
I3757
sS'bunch'
p5642
I637
sS'bethle'
p5643
I3756
sS'negotiated'
p5644
I5711
sS'le'
p5645
I1819
sS'lb'
p5646
I2885
sS'boyde'
p5647
I3755
sS'la'
p5648
I636
sS'lo'
p5649
I2052
sS'relativity'
p5650
I5710
sS'winning'
p5651
I2937
sS'kindergarten'
p5652
I2884
sS'willing'
p5653
I1531
sS'criminal'
p5654
I1324
sS'dad'
p5655
I684
sS'dag'
p5656
I5709
sS'greater'
p5657
I5708
sS'dan'
p5658
I2883
sS'spell'
p5659
I5562
sS'mention'
p5660
I1530
sS'cutting'
p5661
I2051
sS'courtroom'
p5662
I2390
sS'dar'
p5663
I5706
sS'day'
p5664
I174
sS'preschool'
p5665
I5705
sS'strive'
p5666
I5704
sS'february'
p5667
I2776
sS'airports'
p5668
I5702
sS'thrill'
p5669
I5701
sS'warned'
p5670
I5700
sS'slacked'
p5671
I5699
sS'blazing'
p5672
I5698
sS'morris'
p5673
I2388
sS'chri'
p5674
I4797
sS'disregard'
p5675
I5697
sS'tubing'
p5676
I5696
sS'identifies'
p5677
I5695
sS'experienced'
p5678
I5694
sS'one-ninety'
p5679
I7662
sS'dreaming'
p5680
I5983
sS'junkie'
p5681
I5691
sS'programmer'
p5682
I4306
sS'sexual'
p5683
I5690
sS'empires'
p5684
I5689
sS'matt'
p5685
I2881
sS'harding'
p5686
I4796
sS'pro-choice'
p5687
I3648
sS'rep'
p5688
I1323
sS'mate'
p5689
I5688
sS'stug'
p5690
I5687
sS'stud'
p5691
I5686
sS'rec'
p5692
I3750
sS'smog'
p5693
I2880
sS'rea'
p5694
I2387
sS'math'
p5695
I2577
sS'frank'
p5696
I3749
sS'fourteen'
p5697
I1066
sS'que'
p5698
I5685
sS"phone's"
p5699
I3263
sS'yard'
p5700
I3748
sS'liscense'
p5701
I3747
sS'chicken'
p5702
I2050
sS'abuse'
p5703
I2678
sS'retail'
p5704
I3745
sS'waitress'
p5705
I3744
sS'plastics'
p5706
I5684
sS'reaches'
p5707
I5683
sS'hey'
p5708
I376
sS'embarrassed'
p5709
I3743
sS'reached'
p5710
I3742
sS'owning'
p5711
I5681
sS'ancient'
p5712
I5680
sS'thirties'
p5713
I2049
sS'bologna'
p5714
I5679
sS'chased'
p5715
I3741
sS'compliant'
p5716
I5982
sS'establishments'
p5717
I5678
sS'vagina'
p5718
I5676
sS'palestine'
p5719
I5675
sS'pote'
p5720
I5674
sS'messing'
p5721
I5673
sS'cabin'
p5722
I3740
sS'sixteenth'
p5723
I1818
sS'gear'
p5724
I5672
sS'explanation'
p5725
I3150
sS'nobody'
p5726
I504
sS'loved'
p5727
I1118
sS'glamorous'
p5728
I5669
sS'shampoo'
p5729
I5668
sS'sweden'
p5730
I5667
sS'loves'
p5731
I1529
sS'visited'
p5732
I4256
sS'oh-hoh'
p5733
I5666
sS'comfortable'
p5734
I1181
sS'tide'
p5735
I5665
sS'comfortably'
p5736
I3738
sS'have'
p5737
I25
sS'apparently'
p5738
I2176
sS'aladdin'
p5739
I5664
sS'dallas'
p5740
I3737
sS'mid'
p5741
I3736
sS'incentive'
p5742
I2386
sS'montgomery'
p5743
I3735
sS'mix'
p5744
I5663
sS'sexier'
p5745
I5662
sS'concerns'
p5746
I3734
sS'mis'
p5747
I3733
sS'omnipoint'
p5748
I120
sS'cosby'
p5749
I5660
sS'unless'
p5750
I635
sS"where'd"
p5751
I2878
sS"where's"
p5752
I1408
sS'eight'
p5753
I286
sS'handbag'
p5754
I5659
sS'payment'
p5755
I5658
sS'kiddy-like'
p5756
I5657
sS'enthusiastic'
p5757
I5656
sS'gather'
p5758
I3732
sS'request'
p5759
I5655
sS'disease'
p5760
I1407
sS'callers'
p5761
I5654
sS'absurd'
p5762
I5653
sS'occasion'
p5763
I3731
sS'skinny'
p5764
I2385
sS'normally'
p5765
I1180
sS"university's"
p5766
I5652
sS'recess'
p5767
I5651
sS'text'
p5768
I5650
sS'charles'
p5769
I1643
sS'portfolio'
p5770
I5649
sS'mice'
p5771
I5648
sS'staff'
p5772
I2877
sS'communism'
p5773
I5647
sS'knowledge'
p5774
I1406
sS'madman'
p5775
I5646
sS'controls'
p5776
I5645
sS'betsy'
p5777
I5644
sS'discovers'
p5778
I5404
sS"they're"
p5779
I151
sS'beat'
p5780
I985
sS'coworker'
p5781
I5643
sS'stripes'
p5782
I5642
sS'bear'
p5783
I2047
sS'timing'
p5784
I2046
sS'westchester'
p5785
I5641
sS'areas'
p5786
I951
sS'crabs'
p5787
I5640
sS'calling'
p5788
I375
sS"manager's"
p5789
I3730
sS"won't"
p5790
I900
sS'handwritten'
p5791
I5403
sS'gibson'
p5792
I6945
sS'farthest'
p5793
I5639
sS'national'
p5794
I1117
sS'interview'
p5795
I2182
sS'purses'
p5796
I5638
sS'discounts'
p5797
I5637
sS'hammock'
p5798
I5636
sS'rowan'
p5799
I5635
sS'phased'
p5800
I5634
sS'routine'
p5801
I5633
sS'progress'
p5802
I5632
sS'janet'
p5803
I5631
sS'implementing'
p5804
I5630
sS'secrets'
p5805
I5629
sS'revoked'
p5806
I2383
sS'joke'
p5807
I2874
sS'taking'
p5808
I469
sS'special-ed'
p5809
I5628
sS'equal'
p5810
I2382
sS'attributed'
p5811
I5627
sS'trips'
p5812
I1953
sS'busted'
p5813
I3728
sS'swim'
p5814
I5626
sS'passing'
p5815
I2381
sS'highland'
p5816
I2045
sS'otherwise'
p5817
I1251
sS'comment'
p5818
I5625
sS'vent'
p5819
I3727
sS'relevant'
p5820
I3726
sS'cnbc'
p5821
I3725
sS'ricochets'
p5822
I5624
sS'laugh'
p5823
I18
sS'walnut'
p5824
I961
sS'earning'
p5825
I5623
sS'transylvania'
p5826
I3724
sS'tremendous'
p5827
I3723
sS"it's"
p5828
I66
sS'muddy'
p5829
I5622
sS'af'
p5830
I7649
sS'copier'
p5831
I2873
sS'copies'
p5832
I5620
sS'defi-'
p5833
I5619
sS'ah'
p5834
I60
sS"lady's"
p5835
I5618
sS'curtain'
p5836
I5617
sS"it'd"
p5837
I3722
sS'stationed'
p5838
I5616
sS'cop'
p5839
I1642
sS'berlinsville'
p5840
I5615
sS'airplanes'
p5841
I3721
sS'essentially'
p5842
I5614
sS'bulk'
p5843
I3720
sS'finished'
p5844
I1405
sS'bull'
p5845
I3719
sS'volunteer'
p5846
I2380
sS'homes'
p5847
I2872
sS'holiday'
p5848
I1161
sS'plain'
p5849
I2044
sS'value'
p5850
I1528
sS'hoodlum'
p5851
I7645
sS'promoted'
p5852
I5613
sS'hoagie'
p5853
I3717
sS'frustrating'
p5854
I3716
sS'midwife'
p5855
I5612
sS'manually'
p5856
I5611
sS'almost'
p5857
I374
sS'steeping'
p5858
I4843
sS'helped'
p5859
I1890
sS'claimed'
p5860
I2379
sS'partner'
p5861
I5609
sS'tumbled'
p5862
I5608
sS'whirl'
p5863
I3715
sS'administration'
p5864
I2378
sS'foxy'
p5865
I3714
sS'twelfth'
p5866
I2870
sS'injured'
p5867
I5607
sS'practice'
p5868
I1879
sS'selfish'
p5869
I1731
sS'reporting'
p5870
I2377
sS'spitting'
p5871
I3713
sS'sisters'
p5872
I1322
sS'center'
p5873
I413
sS'weapon'
p5874
I5605
sS'disoriented'
p5875
I5604
sS'thought'
p5876
I192
sS'oops'
p5877
I3712
sS'sets'
p5878
I1817
sS'position'
p5879
I857
sS'publicize'
p5880
I3711
sS'muscle'
p5881
I5603
sS'soviet'
p5882
I5602
sS'latest'
p5883
I5601
sS'coaster'
p5884
I2709
sS'sister-in-law'
p5885
I2869
sS'standings'
p5886
I5600
sS'clinic'
p5887
I5599
sS'seats'
p5888
I1250
sS'tone'
p5889
I3432
sS'nokias'
p5890
I2042
sS'raves'
p5891
I2868
sS'ads'
p5892
I1527
sS'investor'
p5893
I5597
sS'lake'
p5894
I2376
sS'estefan'
p5895
I5458
sS'add'
p5896
I1179
sS'aruba'
p5897
I5595
sS'oyyoyyoy'
p5898
I5484
sS'reenact'
p5899
I5593
sS'reformed'
p5900
I5153
sS'tests'
p5901
I3709
sS'motorola'
p5902
I5592
sS'like'
p5903
I16
sS'success'
p5904
I2867
sS'sofa'
p5905
I4102
sS'journalism'
p5906
I3708
sS'admitted'
p5907
I3707
sS'darcy'
p5908
I5590
sS'sarajevo'
p5909
I5589
sS'chick'
p5910
I5588
sS'works'
p5911
I289
sS'soft'
p5912
I1526
sS'italian'
p5913
I2866
sS'accessible'
p5914
I5587
sS'classical'
p5915
I1403
sS'alive'
p5916
I1871
sS'whiner'
p5917
I5585
sS'hair'
p5918
I1525
sS'proper'
p5919
I2375
sS'whined'
p5920
I5584
sS"school's"
p5921
I5583
sS'supportive'
p5922
I3706
sS'conver'
p5923
I5582
sS'happens'
p5924
I433
sS'unpredictable'
p5925
I5581
sS'kremsky'
p5926
I4079
sS'screwed'
p5927
I1816
sS'overcharged'
p5928
I6550
sS'conference'
p5929
I3705
sS'noise'
p5930
I1402
sS'although'
p5931
I729
sS'noisy'
p5932
I4302
sS'seriousness'
p5933
I5578
sS'about'
p5934
I54
sS'actual'
p5935
I1017
sS'boards'
p5936
I3704
sS"michelle's"
p5937
I3703
sS'miscast'
p5938
I5577
sS'childrens'
p5939
I3702
sS'socks'
p5940
I5576
sS'playoff'
p5941
I5575
sS'female'
p5942
I1401
sS'closing'
p5943
I3764
sS'ridge'
p5944
I2374
sS'biggest'
p5945
I1178
sS'hotspots'
p5946
I5574
sS'buy'
p5947
I329
sS'chatting'
p5948
I5573
sS'bur'
p5949
I5572
sS'bus'
p5950
I2865
sS'brand'
p5951
I1641
sS'but'
p5952
I27
sS'reminds'
p5953
I5571
sS'repeated'
p5954
I5570
sS'memphis'
p5955
I3701
sS'versatile'
p5956
I5569
sS'partially'
p5957
I3700
sS'wise'
p5958
I2373
sS'dangerous'
p5959
I1548
sS'j'
p5960
I1065
sS'flip'
p5961
I2372
sS'minutes'
p5962
I201
sS'skating'
p5963
I2038
sS'rosebowl'
p5964
I5568
sS'rabbits'
p5965
I5567
sS'pin'
p5966
I1116
sS'deaths'
p5967
I5566
sS'handset'
p5968
I2371
sS'indeedy'
p5969
I5564
sS'periods'
p5970
I3699
sS'shooting'
p5971
I1815
sS'pit'
p5972
I5563
sS'campus'
p5973
I1400
sS'corporation'
p5974
I4036
sS'claiming'
p5975
I5561
sS'detail'
p5976
I2037
sS'virtual'
p5977
I3698
sS'forestry'
p5978
I5560
sS'uh-oh'
p5979
I2842
sS'jeeps'
p5980
I5558
sS'pi-'
p5981
I5557
sS'variation'
p5982
I5556
sS'supervisors'
p5983
I7078
sS'goin'
p5984
I5555
sS'sentiment'
p5985
I4769
sS'prevalent'
p5986
I5554
sS'yell'
p5987
I5552
sS'accidents'
p5988
I5551
sS'limited'
p5989
I2123
sS'hats'
p5990
I5550
sS'hitch'
p5991
I5549
sS"daughter's"
p5992
I1524
sS'facilities'
p5993
I1321
sS'sleep'
p5994
I1115
sS'appetite'
p5995
I5548
sS'hate'
p5996
I742
sS'sch'
p5997
I3697
sS'trolley'
p5998
I1814
sS'feeding'
p5999
I5547
sS'paris'
p6000
I1523
sS"there've"
p6001
I5546
sS'whatsoever'
p6002
I2863
sS'under'
p6003
I668
sS'pride'
p6004
I5545
sS'regrets'
p6005
I5544
sS'conjecture'
p6006
I5543
sS'louder'
p6007
I6326
sS'risk'
p6008
I5542
sS'ident'
p6009
I5541
sS'every'
p6010
I210
sS'jack'
p6011
I2369
sS'trailer'
p6012
I5540
sS'dreamworks'
p6013
I5539
sS'school'
p6014
I117
sS'glues'
p6015
I5537
sS'venue'
p6016
I3696
sS'smoky'
p6017
I7215
sS'ricki'
p6018
I5536
sS'swiped'
p6019
I6796
sS'enjoy'
p6020
I769
sS'leaders'
p6021
I3695
sS'weddings'
p6022
I3694
sS'direct'
p6023
I1177
sS'nail'
p6024
I3693
sS'surrounding'
p6025
I5535
sS'street'
p6026
I510
sS'bec-'
p6027
I5534
sS'blue'
p6028
I1176
sS'hide'
p6029
I3692
sS'christ'
p6030
I5533
sS'solemn'
p6031
I5532
sS'selected'
p6032
I5531
sS'liberty'
p6033
I2036
sS'coasters'
p6034
I5530
sS'supplies'
p6035
I2367
sS'non-violence'
p6036
I3691
sS'disney'
p6037
I801
sS'kicked'
p6038
I5529
sS'over-charging'
p6039
I5528
sS'hundreds'
p6040
I5527
sS'beck'
p6041
I5526
sS'pratt'
p6042
I5525
sS'studio'
p6043
I2366
sS'represented'
p6044
I5524
sS'path'
p6045
I3690
sS'beca'
p6046
I2862
sS'engle'
p6047
I5523
sS'property'
p6048
I1640
sS'vikings'
p6049
I7638
sS'luggage'
p6050
I5522
sS'stevie'
p6051
I3710
sS'leaves'
p6052
I3689
sS'changed'
p6053
I984
sS'saint'
p6054
I3244
sS'mentor'
p6055
I5520
sS'esciar'
p6056
I5519
sS'changes'
p6057
I1426
sS'punishment'
p6058
I1320
sS'vacations'
p6059
I1249
sS'offs'
p6060
I5517
sS'stray'
p6061
I3688
sS'touchdowns'
p6062
I5516
sS'julia'
p6063
I2365
sS'feelings'
p6064
I3687
sS'visible'
p6065
I5515
sS'actions'
p6066
I5514
sS'swings'
p6067
I5513
sS'would'
p6068
I48
sS'piddling'
p6069
I3686
sS'm-'
p6070
I5512
sS'hospital'
p6071
I2035
sS'breathe'
p6072
I3685
sS'robbins'
p6073
I5511
sS'phone'
p6074
I112
sS'connecticut'
p6075
I1813
sS'excellent'
p6076
I1293
sS'robbing'
p6077
I5510
sS'tampa'
p6078
I3683
sS'must'
p6079
I634
sS'shoot'
p6080
I983
sS'join'
p6081
I1420
sS'mc'
p6082
I3682
sS'cheapest'
p6083
I5509
sS'mm'
p6084
I1175
sS'mo'
p6085
I1888
sS'tremendously'
p6086
I5507
sS'mi'
p6087
I1812
sS'entertained'
p6088
I5506
sS'mu'
p6089
I2860
sS'dizzy'
p6090
I6190
sS'mp'
p6091
I3681
sS'cond'
p6092
I7085
sS'my'
p6093
I35
sS'addictive'
p6094
I3680
sS"caroline's"
p6095
I5502
sS'estate'
p6096
I5501
sS'florida'
p6097
I752
sS'mayhem'
p6098
I5500
sS'keep'
p6099
I294
sS'guarantee'
p6100
I3677
sS'end'
p6101
I306
sS'actuality'
p6102
I3676
sS'charging'
p6103
I2859
sS'dialect'
p6104
I2858
sS'poker'
p6105
I5499
sS'description'
p6106
I5498
sS'mess'
p6107
I1319
sS'hallucinogen'
p6108
I5497
sS'lump'
p6109
I5496
sS'sparkler'
p6110
I5495
sS'salsa'
p6111
I3675
sS'parallel'
p6112
I5494
sS'na-di-da-di-da'
p6113
I5493
sS'en-'
p6114
I5492
sS'allison'
p6115
I5491
sS'jungle'
p6116
I2960
sS'enter'
p6117
I5490
sS'aloud'
p6118
I5489
sS'harlem'
p6119
I5488
sS'archaeology'
p6120
I5487
sS'executed'
p6121
I5486
sS'wound'
p6122
I2841
sS'over'
p6123
I138
sS'london'
p6124
I2857
sS'oven'
p6125
I5485
sS'edita'
p6126
I5483
sS'exhibits'
p6127
I2856
sS'writing'
p6128
I1318
sS'drawback'
p6129
I5385
sS'whips'
p6130
I5481
sS'diseases'
p6131
I1836
sS'elated'
p6132
I5480
sS'bouts'
p6133
I5479
sS'revelations'
p6134
I3672
sS'one-oh-five'
p6135
I5478
sS'peop'
p6136
I2216
sS'tourism'
p6137
I5476
sS'shadows'
p6138
I3671
sS'alex'
p6139
I2855
sS'cable'
p6140
I1373
sS'bosnia'
p6141
I5475
sS'notified'
p6142
I5474
sS'detroit'
p6143
I3669
sS'choir'
p6144
I5473
sS'filling'
p6145
I3668
sS'newport'
p6146
I5472
sS'each'
p6147
I476
sS'appalachians'
p6148
I3667
sS'lasting'
p6149
I5471
sS'consolidate'
p6150
I5470
sS'signing'
p6151
I2364
sS'diana'
p6152
I2034
sS'septa'
p6153
I5469
sS'celebrating'
p6154
I5468
sS'ghosts'
p6155
I525
sS'saturday'
p6156
I920
sS'pounce'
p6157
I5467
sS'over-charge'
p6158
I5951
sS'goo'
p6159
I5465
sS'islanders'
p6160
I5464
sS'driving'
p6161
I439
sS'god'
p6162
I246
sS'psychic'
p6163
I5463
sS'washed'
p6164
I5462
sS'counselors'
p6165
I5461
sS'laid'
p6166
I1811
sS'millennium'
p6167
I2854
sS'got'
p6168
I76
sS'twenty-five'
p6169
I1114
sS'independence'
p6170
I5950
sS'arizona'
p6171
I5460
sS'merchandising'
p6172
I3665
sS'associate'
p6173
I5459
sS'free'
p6174
I446
sS'rain'
p6175
I3664
sS'wanted'
p6176
I305
sS'go-'
p6177
I3663
sS'racquetball'
p6178
I2426
sS'one-bedroom'
p6179
I5457
sS'days'
p6180
I448
sS'priorities'
p6181
I2363
sS'filter'
p6182
I5454
sS'heck'
p6183
I919
sS'smokers'
p6184
I2853
sS'onto'
p6185
I3661
sS'key'
p6186
I1858
sS'rang'
p6187
I2033
sS'already'
p6188
I420
sS'primary'
p6189
I5452
sS'pre-paid'
p6190
I3660
sS'hearing'
p6191
I1317
sS'fantasy'
p6192
I5451
sS'priority'
p6193
I2710
sS'toy'
p6194
I1521
sS'top'
p6195
I683
sS'fiction'
p6196
I1810
sS'ballistic'
p6197
I5447
sS'too'
p6198
I85
sS'tol'
p6199
I3659
sS'tom'
p6200
I3658
sS'percentage'
p6201
I2032
sS'urban'
p6202
I2852
sS'ceiling'
p6203
I3657
sS'murder'
p6204
I2031
sS'airwaves'
p6205
I5446
sS'tool'
p6206
I5445
sS'serve'
p6207
I2851
sS'took'
p6208
I362
sS'jayce'
p6209
I1472
sS'weightlifting'
p6210
I5443
sS'western'
p6211
I2850
sS'erickson'
p6212
I5442
sS'roles'
p6213
I1520
sS'final'
p6214
I1679
sS'classes'
p6215
I728
sS'bridge'
p6216
I1316
sS'humble'
p6217
I7079
sS'ran'
p6218
I1398
sS'talking'
p6219
I199
sS'screwy'
p6220
I5438
sS'leafs'
p6221
I5437
sS'regulate'
p6222
I5436
sS'relatively'
p6223
I1809
sS'traditionally'
p6224
I5435
sS'scriptures'
p6225
I3656
sS'snow'
p6226
I1016
sS'brandon'
p6227
I5434
sS'oriented'
p6228
I2849
sS'laughed'
p6229
I5433
sS'rides'
p6230
I5432
sS'rider'
p6231
I5431
sS"girl's"
p6232
I2362
sS'though'
p6233
I156
sS'audition'
p6234
I5430
sS'mannerisms'
p6235
I5429
sS'plenty'
p6236
I1808
sS'jean'
p6237
I5377
sS'inexcusable'
p6238
I5428
sS'rogers'
p6239
I2361
sS'metal'
p6240
I2847
sS'reputation'
p6241
I2846
sS'abouts'
p6242
I3654
sS'contacted'
p6243
I2891
sS'random'
p6244
I1533
sS'pops'
p6245
I5427
sS'colors'
p6246
I2030
sS'radio'
p6247
I918
sS'earth'
p6248
I2029
sS'analogue'
p6249
I2360
sS'bail'
p6250
I5426
sS'oci'
p6251
I5425
sS'spite'
p6252
I3652
sS'curricular'
p6253
I3651
sS'situations'
p6254
I1807
sS'minnesota'
p6255
I2359
sS'athletic'
p6256
I7076
sS'vinny'
p6257
I5423
sS'announce'
p6258
I3650
sS'scripture'
p6259
I5422
sS'oct'
p6260
I5421
sS'norristown'
p6261
I5420
sS'asians'
p6262
I2358
sS'asbestos'
p6263
I5419
sS'kindling'
p6264
I5418
sS'watch'
p6265
I258
sS'tail-gaiter'
p6266
I5417
sS'guatemala'
p6267
I5416
sS'tammy'
p6268
I5415
sS'wedding'
p6269
I2053
sS'report'
p6270
I1806
sS'swindled'
p6271
I6521
sS'avenues'
p6272
I5414
sS'countries'
p6273
I1315
sS'solders'
p6274
I5413
sS'chesapeake'
p6275
I5412
sS'anxiously'
p6276
I5411
sS'twice'
p6277
I832
sS'ruins'
p6278
I5410
sS'mergers'
p6279
I5409
sS'farther'
p6280
I2844
sS'swept'
p6281
I5408
sS'habit'
p6282
I1637
sS'nun'
p6283
I3647
sS'disturbing'
p6284
I5407
sS'noodles'
p6285
I5406
sS'capacity'
p6286
I3646
sS'interviewing'
p6287
I2843
sS'dock'
p6288
I7384
sS'grandmother'
p6289
I1636
sS'mud'
p6290
I5405
sS'finger'
p6291
I2876
sS'hopefully'
p6292
I624
sS"name's"
p6293
I3645
sS'approach'
p6294
I2357
sS'discovery'
p6295
I3678
sS'montagna'
p6296
I5402
sS'confusion'
p6297
I5401
sS'weak'
p6298
I3644
sS'however'
p6299
I1805
sS'boss'
p6300
I1248
sS'toothbrush'
p6301
I5400
sS'pre-med'
p6302
I5399
sS'wear'
p6303
I1635
sS'censorship'
p6304
I2028
sS'news'
p6305
I394
sS'holds'
p6306
I7391
sS'improve'
p6307
I3643
sS'protect'
p6308
I2356
sS'fault'
p6309
I1634
sS'beeps'
p6310
I2355
sS'participating'
p6311
I1247
sS'players'
p6312
I831
sS'merging'
p6313
I2027
sS'games'
p6314
I633
sS'faces'
p6315
I5398
sS'expense'
p6316
I2354
sS'acceptable'
p6317
I3642
sS'smuggled'
p6318
I5397
sS'explanatory'
p6319
I5396
sS'karem'
p6320
I5395
sS'karen'
p6321
I1804
sS'trust'
p6322
I2026
sS'hitler'
p6323
I3641
sS'comical'
p6324
I5394
sS'bingo'
p6325
I3640
sS'bathroom'
p6326
I1633
sS'been'
p6327
I97
sS'quickly'
p6328
I2353
sS'beep'
p6329
I1803
sS'beer'
p6330
I1015
sS'expected'
p6331
I3639
sS'drugs'
p6332
I507
sS'uncommon'
p6333
I5393
sS'extracurricular'
p6334
I1246
sS'catch'
p6335
I727
sS'auras'
p6336
I3638
sS'kentucky'
p6337
I2352
sS'n'
p6338
I468
sS'rutgers'
p6339
I3637
sS'teachers'
p6340
I830
sS'stopping'
p6341
I3636
sS'cracked'
p6342
I3635
sS'veronica'
p6343
I5391
sS'pyramid'
p6344
I5390
sS'runaround'
p6345
I5389
sS'expenses'
p6346
I5388
sS'nike'
p6347
I5387
sS'suggest'
p6348
I5386
sS'prussia'
p6349
I1638
sS'beside'
p6350
I2351
sS'complex'
p6351
I4138
sS'inventory'
p6352
I2840
sS'bands'
p6353
I2833
sS'several'
p6354
I2025
sS'spartan'
p6355
I7717
sS"chi's"
p6356
I5384
sS'satellite'
p6357
I2839
sS'papaya'
p6358
I5383
sS'pick'
p6359
I467
sS'springtime'
p6360
I2350
sS'suburb'
p6361
I3631
sS'fridays'
p6362
I2838
sS'characters'
p6363
I3630
sS'tyson'
p6364
I5382
sS'one-twenty'
p6365
I6992
sS'mentioning'
p6366
I5381
sS'dylan'
p6367
I3629
sS'shortly'
p6368
I5380
sS"mother's"
p6369
I2837
sS'possessed'
p6370
I5379
sS'lcd'
p6371
I5378
sS'ocean'
p6372
I2836
sS'greatest'
p6373
I1519
sS'mother'
p6374
I508
sS'hearts'
p6375
I3628
sS'alabama'
p6376
I2848
sS'leagues'
p6377
I3627
sS'proposed'
p6378
I5376
sS'unemployment'
p6379
I3626
sS'grades'
p6380
I1802
sS"lerner's"
p6381
I2835
sS'chauffeuring'
p6382
I5375
sS'monitored'
p6383
I3625
sS'elf'
p6384
I5374
sS'pharmacy'
p6385
I2349
sS'teenager'
p6386
I2834
sS'technological'
p6387
I5373
sS'gave'
p6388
I623
sS'actresses'
p6389
I5372
sS'casting'
p6390
I3623
sS'advances'
p6391
I3632
sS'breaks'
p6392
I2832
sS'addicts'
p6393
I5371
sS'cultural'
p6394
I3622
sS'judge'
p6395
I1632
sS'roach'
p6396
I2831
sS'burnt'
p6397
I2348
sS'rumor'
p6398
I5370
sS'apart'
p6399
I1518
sS'mansions'
p6400
I5369
sS'gift'
p6401
I2024
sS'contradict'
p6402
I5368
sS'hunt'
p6403
I2828
sS'orlando'
p6404
I1174
sS'specific'
p6405
I1396
sS'informative'
p6406
I5366
sS'offices'
p6407
I2830
sS'officer'
p6408
I5365
sS'hung'
p6409
I2347
sS'hund'
p6410
I5364
sS'whomever'
p6411
I3621
sS'sixty-ninth'
p6412
I2829
sS'gifted'
p6413
I5367
sS'stereotype'
p6414
I3620
sS"gilligan's"
p6415
I3395
sS'jennifer'
p6416
I1631
sS'clubs'
p6417
I2346
sS'escape'
p6418
I2827
sS'advertise'
p6419
I3462
sS'outgrew'
p6420
I5362
sS'ice'
p6421
I982
sS'everything'
p6422
I185
sS'icy'
p6423
I3619
sS'cnn'
p6424
I5360
sS'christmas'
p6425
I400
sS'core'
p6426
I2826
sS'deleted'
p6427
I5359
sS'discount'
p6428
I2345
sS"wilder's"
p6429
I5892
sS'lamps'
p6430
I4845
sS'chapter'
p6431
I3618
sS'accountants'
p6432
I5357
sS'attacks'
p6433
I5356
sS'surround'
p6434
I5355
sS'dinner'
p6435
I800
sS'plus'
p6436
I632
sS'logistical'
p6437
I5354
sS'duke'
p6438
I3617
sS'dials'
p6439
I5353
sS'presence'
p6440
I2022
sS'civil'
p6441
I2344
sS'bath'
p6442
I2343
sS'accomplishments'
p6443
I5352
sS'donated'
p6444
I5351
sS'procrastinator'
p6445
I3616
sS'cafeteria'
p6446
I3615
sS'rounds'
p6447
I5350
sS'rely'
p6448
I2342
sS'gir'
p6449
I5349
sS'class'
p6450
I557
sS'stuck'
p6451
I981
sS'anderson'
p6452
I5348
sS'fought'
p6453
I1512
sS'head'
p6454
I890
sS'differences'
p6455
I2824
sS'heinous'
p6456
I5347
sS'heat'
p6457
I2823
sS'hear'
p6458
I209
sS'bernice'
p6459
I3614
sS'portions'
p6460
I5346
sS'donald'
p6461
I2822
sS'paging'
p6462
I5345
sS'decorate'
p6463
I5344
sS'gi-'
p6464
I5343
sS'lsat'
p6465
I5342
sS'atti'
p6466
I5341
sS'disperse'
p6467
I7683
sS'trio'
p6468
I5340
sS'ottowa'
p6469
I3613
sS'mephistopheles'
p6470
I4738
sS'suspicions'
p6471
I5338
sS'whereabout'
p6472
I5337
sS'sometime'
p6473
I1314
sS'believable'
p6474
I5336
sS'annoying'
p6475
I2821
sS'trip'
p6476
I1022
sS'ni'
p6477
I2341
sS'techs'
p6478
I3611
sS'eerie'
p6479
I3537
sS'na'
p6480
I2820
sS'commercials'
p6481
I1788
sS'tip'
p6482
I1799
sS'ne'
p6483
I1798
sS'til'
p6484
I1797
sS'tim'
p6485
I5334
sS'tin'
p6486
I5333
sS'setting'
p6487
I2340
sS'stagnant'
p6488
I3610
sS'whew'
p6489
I2819
sS'papers'
p6490
I1173
sS'formalize'
p6491
I5332
sS'tie'
p6492
I5331
sS'depot'
p6493
I5330
sS'erosion'
p6494
I3609
sS'tia'
p6495
I3608
sS'eternity'
p6496
I5329
sS'picture'
p6497
I1796
sS'sink'
p6498
I5744
sS'phoenix'
p6499
I3607
sS'spoils'
p6500
I7615
sS'football'
p6501
I456
sS'buddhists'
p6502
I5327
sS'younger'
p6503
I726
sS'n-'
p6504
I5326
sS'bullet'
p6505
I5325
sS'vietnam'
p6506
I3606
sS'serious'
p6507
I917
sS'bamba'
p6508
I5324
sS'stacks'
p6509
I3605
sS'neighbors'
p6510
I2818
sS'coach'
p6511
I2339
sS'rom'
p6512
I3604
sS'affair'
p6513
I6501
sS'particular'
p6514
I1120
sS'alternatives'
p6515
I5322
sS'focus'
p6516
I1313
sS"wendy's"
p6517
I5082
sS'sympathetic'
p6518
I6644
sS'leads'
p6519
I3603
sS'gazillion'
p6520
I5320
sS'recharge'
p6521
I5071
sS'tele-communications'
p6522
I3602
sS'contemplating'
p6523
I5319
sS'environment'
p6524
I1779
sS'charge'
p6525
I1064
sS'promoting'
p6526
I5318
sS'agreed'
p6527
I2815
sS'advantage'
p6528
I1112
sS'sours'
p6529
I5317
sS'cook'
p6530
I5316
sS'li'
p6531
I1171
sS'emphasized'
p6532
I5315
sS'deirdre'
p6533
I5314
sS'cool'
p6534
I196
sS'incitement'
p6535
I5021
sS'impressive'
p6536
I2814
sS'level'
p6537
I1312
sS'camaraderie'
p6538
I3600
sS'posts'
p6539
I3488
sS'hawaii'
p6540
I1749
sS'standards'
p6541
I2813
sS'couched'
p6542
I5312
sS'quick'
p6543
I855
sS'says'
p6544
I494
sS'porn'
p6545
I3598
sS'trend'
p6546
I5310
sS'obsolete'
p6547
I5309
sS'inland'
p6548
I5308
sS'slowed'
p6549
I5307
sS'voucher'
p6550
I3597
sS'comforting'
p6551
I5306
sS'soldiers'
p6552
I4048
sS'port'
p6553
I1388
sS'drinks'
p6554
I2337
sS'orthodontics'
p6555
I5304
sS'stressful'
p6556
I1630
sS'stands'
p6557
I2021
sS"finletter's"
p6558
I5302
sS'goes'
p6559
I310
sS'reply'
p6560
I2812
sS"ceasar's"
p6561
I5301
sS'scripted'
p6562
I3595
sS'hairy'
p6563
I5300
sS'prescriptions'
p6564
I5299
sS'ninety-nine'
p6565
I3594
sS'envy'
p6566
I6499
sS'water'
p6567
I1170
sS'holistic'
p6568
I2811
sS'baseball'
p6569
I854
sS'groups'
p6570
I2020
sS'supplying'
p6571
I5297
sS'terminologies'
p6572
I5296
sS'unidentified'
p6573
I3593
sS'thirty'
p6574
I445
sS'healthy'
p6575
I2336
sS'guilty'
p6576
I1014
sS'exams'
p6577
I5295
sS'pediatric'
p6578
I5294
sS'prude'
p6579
I5293
sS'hospitality'
p6580
I5291
sS'weird'
p6581
I408
sS'shootings'
p6582
I3592
sS'fairmount'
p6583
I3591
sS'architectural'
p6584
I4234
sS'problematic'
p6585
I5290
sS'threes'
p6586
I3589
sS'morale'
p6587
I5289
sS'peer'
p6588
I3588
sS'paralyzed'
p6589
I2335
sS'isley'
p6590
I5288
sS'touchdown'
p6591
I5287
sS'capi-'
p6592
I5286
sS'handled'
p6593
I5284
sS'sports'
p6594
I524
sS'msn'
p6595
I5283
sS'andy'
p6596
I5282
sS'criteria'
p6597
I2018
sS'prep'
p6598
I3586
sS'today'
p6599
I293
sS'kerry'
p6600
I3585
sS'continue'
p6601
I1599
sS'riot'
p6602
I2810
sS'sessions'
p6603
I3584
sS'chocolate'
p6604
I5281
sS'carnival'
p6605
I5280
sS'beers'
p6606
I3583
sS'cases'
p6607
I1517
sS'local'
p6608
I701
sS'modified'
p6609
I5279
sS'districts'
p6610
I3582
sS'boonton'
p6611
I5278
sS'slightest'
p6612
I5277
sS'trump'
p6613
I3581
sS'figure'
p6614
I523
sS'downfall'
p6615
I5276
sS'newsletters'
p6616
I3580
sS'cube'
p6617
I3579
sS'dropped'
p6618
I1169
sS'counting'
p6619
I5275
sS'requirements'
p6620
I2809
sS'fourty'
p6621
I5274
sS'fourth'
p6622
I799
sS'speaks'
p6623
I2333
sS'tipper'
p6624
I5273
sS'cocktail'
p6625
I5272
sS'information'
p6626
I531
sS'eighty'
p6627
I980
sS'bonfires'
p6628
I5271
sS'crashed'
p6629
I5270
sS'birthday'
p6630
I1395
sS'tipped'
p6631
I5269
sS'curing'
p6632
I5268
sS'eighth'
p6633
I1516
sS'classroom'
p6634
I2808
sS'legalese'
p6635
I5267
sS'quakertown'
p6636
I1793
sS'representation'
p6637
I5266
sS'midnight'
p6638
I1515
sS'worship'
p6639
I2332
sS'dreading'
p6640
I5265
sS"he's"
p6641
I276
sS'apex'
p6642
I5264
sS'cheerleaders'
p6643
I3577
sS'joysticks'
p6644
I5263
sS"he'd"
p6645
I5262
sS'offers'
p6646
I3576
sS'farmer'
p6647
I5261
sS'passat'
p6648
I3575
sS'happened'
p6649
I405
sS'lonely'
p6650
I5260
sS'conversations'
p6651
I2807
sS'underneath'
p6652
I2806
sS'warranted'
p6653
I5258
sS'qualified'
p6654
I2017
sS"larry's"
p6655
I3574
sS'devastates'
p6656
I5257
sS'term'
p6657
I2805
sS'equality'
p6658
I5256
sS'name'
p6659
I298
sS'non-smoking'
p6660
I3573
sS'opera'
p6661
I3572
sS'corners'
p6662
I5255
sS'debating'
p6663
I5254
sS'possibilities'
p6664
I5253
sS'realistic'
p6665
I3571
sS'eighties'
p6666
I2016
sS'thirty-three'
p6667
I6144
sS'realism'
p6668
I5252
sS'married'
p6669
I432
sS'populated'
p6670
I2329
sS'inopportune'
p6671
I5250
sS'catching'
p6672
I3570
sS'myrtle'
p6673
I5249
sS'intended'
p6674
I7688
sS'ultimately'
p6675
I2328
sS"america's"
p6676
I5248
sS'profit'
p6677
I2804
sS'tensions'
p6678
I5247
sS'factory'
p6679
I2327
sS'someplace'
p6680
I2803
sS"shouldn't"
p6681
I829
sS'attended'
p6682
I3569
sS'theory'
p6683
I2802
sS'previews'
p6684
I5245
sS'flyer'
p6685
I3568
sS'pilsner'
p6686
I7050
sS'yup'
p6687
I373
sS"att's"
p6688
I5243
sS'motion'
p6689
I5242
sS'turn'
p6690
I667
sS'place'
p6691
I273
sS'swing'
p6692
I5241
sS'widow'
p6693
I4043
sS'childhood'
p6694
I2743
sS'blood'
p6695
I2074
sS'-fused'
p6696
I5239
sS'fetched'
p6697
I5238
sS'surviving'
p6698
I5237
sS'revenue'
p6699
I2801
sS'symbolic'
p6700
I3566
sS'awfully'
p6701
I2326
sS'clumsy'
p6702
I5236
sS'pokemon'
p6703
I1629
sS'george'
p6704
I1513
sS'engineer'
p6705
I2656
sS'rented'
p6706
I2325
sS'given'
p6707
I1013
sS'necessarily'
p6708
I1012
sS'district'
p6709
I2015
sS'plastic'
p6710
I2324
sS'bahamas'
p6711
I2800
sS'returns'
p6712
I5234
sS'seeker'
p6713
I4668
sS'convention'
p6714
I5233
sS'legally'
p6715
I5232
sS'white'
p6716
I798
sS'gives'
p6717
I950
sS'tempers'
p6718
I5231
sS'cope'
p6719
I3565
sS'season'
p6720
I1011
sS'hun'
p6721
I5230
sS'huh'
p6722
I198
sS'cheerleading'
p6723
I1511
sS'cops'
p6724
I2323
sS'hus'
p6725
I5229
sS'copy'
p6726
I4303
sS'holder'
p6727
I5227
sS'population'
p6728
I3564
sS'wide'
p6729
I1791
sS"potrano's"
p6730
I5226
sS'unfortunately'
p6731
I654
sS'require'
p6732
I5225
sS'cambry'
p6733
I3563
sS'r'
p6734
I554
sS'cards'
p6735
I2799
sS'poisoning'
p6736
I5224
sS'outcome'
p6737
I2798
sS'transport'
p6738
I7263
sS'pre'
p6739
I5223
sS'pro'
p6740
I1485
sS'ant'
p6741
I5222
sS'mates'
p6742
I5221
sS'rent'
p6743
I725
sS'hornbeck'
p6744
I5220
sS'sells'
p6745
I2797
sS'pry'
p6746
I5219
sS'any'
p6747
I143
sS'life-span'
p6748
I5218
sS'ideas'
p6749
I2013
sS'sciences'
p6750
I3561
sS'emphasis'
p6751
I3133
sS'animation'
p6752
I2322
sS'krempsky'
p6753
I5216
sS'nazareth'
p6754
I2796
sS'comfortability'
p6755
I5215
sS'strengths'
p6756
I5213
sS'sure'
p6757
I137
sS'pr-'
p6758
I5212
sS'rematch'
p6759
I5211
sS'donation'
p6760
I5210
sS'fcc'
p6761
I2321
sS'freshman'
p6762
I3560
sS'librarian'
p6763
I5209
sS'cleared'
p6764
I5208
sS'pencils'
p6765
I4981
sS'considered'
p6766
I2320
sS'proud'
p6767
I2231
sS'hungry'
p6768
I5207
sS'readjust'
p6769
I5206
sS'uncle'
p6770
I1801
sS'senior'
p6771
I1628
sS'drive-ins'
p6772
I5205
sS'quantity'
p6773
I5204
sS'horribly'
p6774
I3559
sS'troc'
p6775
I2795
sS'cheap'
p6776
I2319
sS'spaces'
p6777
I5203
sS'superb'
p6778
I4710
sS'mister'
p6779
I2012
sS'halluci'
p6780
I5201
sS'gulf'
p6781
I5200
sS'knicks'
p6782
I5199
sS'state'
p6783
I550
sS'crime'
p6784
I1010
sS'wood'
p6785
I5198
sS'believing'
p6786
I3557
sS'uncles'
p6787
I5197
sS'jazz'
p6788
I1168
sS'lighter'
p6789
I3556
sS'trade'
p6790
I2389
sS'flicks'
p6791
I6479
sS'freaking'
p6792
I3554
sS'regarding'
p6793
I5195
sS'aluminum'
p6794
I2794
sS'jokes'
p6795
I5194
sS'peppa'
p6796
I5193
sS'netta'
p6797
I5192
sS'discussing'
p6798
I1510
sS'picnic'
p6799
I3553
sS'college'
p6800
I254
sS'parking'
p6801
I1167
sS'apologies'
p6802
I5191
sS'collects'
p6803
I5190
sS'violates'
p6804
I5189
sS'encouraged'
p6805
I2318
sS'sauken'
p6806
I5910
sS'misinterpretations'
p6807
I5188
sS'voluntary'
p6808
I2793
sS'farmers'
p6809
I2792
sS'federal'
p6810
I1627
sS'review'
p6811
I2791
sS'definite'
p6812
I2316
sS'weapons'
p6813
I5187
sS'rendell'
p6814
I2790
sS'outside'
p6815
I425
sS"cd's"
p6816
I3551
sS'comp'
p6817
I3550
sS'comi'
p6818
I5186
sS'self-serving'
p6819
I3549
sS'cities'
p6820
I1111
sS'come'
p6821
I195
sS'reaction'
p6822
I2011
sS'cheerleads'
p6823
I5184
sS'region'
p6824
I3548
sS'priests'
p6825
I5183
sS'quiet'
p6826
I1009
sS'contract'
p6827
I1509
sS'duty'
p6828
I3547
sS'afterwards'
p6829
I3329
sS'prayed'
p6830
I7046
sS'color'
p6831
I1589
sS'pow'
p6832
I5179
sS'pot'
p6833
I2315
sS'period'
p6834
I1110
sS'pop'
p6835
I2010
sS'expresso'
p6836
I7045
sS'poi'
p6837
I5178
sS'polo'
p6838
I5177
sS'bizarre'
p6839
I2789
sS'poll'
p6840
I5176
sS'nicole'
p6841
I4486
sS'computing'
p6842
I7044
sS'subscriber'
p6843
I5173
sS'peaceful'
p6844
I5172
sS'hardly'
p6845
I2788
sS'engine'
p6846
I3545
sS'direction'
p6847
I1310
sS'indirect'
p6848
I3612
sS'blessing'
p6849
I5170
sS'careful'
p6850
I3257
sS'irrelevant'
p6851
I5169
sS'spirit'
p6852
I4461
sS'pilot'
p6853
I5168
sS'paying'
p6854
I594
sS'myself'
p6855
I370
sS'mount'
p6856
I2314
sS'cash'
p6857
I2313
sS'rhymes'
p6858
I5167
sS'career'
p6859
I989
sS'dorks'
p6860
I5166
sS'vest'
p6861
I2312
sS'wnba'
p6862
I3379
sS'telephone'
p6863
I1508
sS'couples'
p6864
I2311
sS'someone'
p6865
I234
sS'ironic'
p6866
I3541
sS'author'
p6867
I5164
sS'granted'
p6868
I1790
sS'bowl'
p6869
I3248
sS'check'
p6870
I495
sS'shifts'
p6871
I3539
sS'buys'
p6872
I2787
sS'events'
p6873
I1626
sS'week'
p6874
I292
sS'driver'
p6875
I2786
sS'drives'
p6876
I2785
sS'muffled'
p6877
I5163
sS'driven'
p6878
I3538
sS'decently'
p6879
I5162
sS'changing'
p6880
I1393
sS'pennsylvania'
p6881
I245
sS'sinned'
p6882
I5161
sS'no'
p6883
I42
sS'jeeze'
p6884
I770
sS'without'
p6885
I666
sS'model'
p6886
I1166
sS'offensively'
p6887
I5160
sS'whereas'
p6888
I1800
sS'bodies'
p6889
I3536
sS'when'
p6890
I77
sS'guided'
p6891
I5159
sS'actress'
p6892
I1787
sS'entrusting'
p6893
I5158
sS'violent'
p6894
I3535
sS'spliced'
p6895
I5157
sS'kill'
p6896
I1062
sS'harrison'
p6897
I3534
sS'polish'
p6898
I3533
sS'halfway'
p6899
I3532
sS'blow'
p6900
I1625
sS'announcement'
p6901
I5156
sS'rose'
p6902
I4966
sS"everyone's"
p6903
I2310
sS'seems'
p6904
I339
sS'except'
p6905
I741
sS'tonya'
p6906
I5155
sS'shrine'
p6907
I5450
sS'viewers'
p6908
I5903
sS'ross'
p6909
I5152
sS'scheduled'
p6910
I3531
sS'vocalizing'
p6911
I5151
sS'kills'
p6912
I5150
sS'reassured'
p6913
I7597
sS'virginia'
p6914
I1623
sS'confines'
p6915
I5149
sS'inflation'
p6916
I5148
sS'confined'
p6917
I5147
sS'accepted'
p6918
I2782
sS'furniture'
p6919
I2309
sS'kennedy'
p6920
I3529
sS'deta'
p6921
I5146
sS'buddies'
p6922
I5145
sS'gyms'
p6923
I5144
sS'curriculums'
p6924
I5143
sS'reduced'
p6925
I3528
sS'joking'
p6926
I1507
sS'purcel'
p6927
I3527
sS'competition'
p6928
I2781
sS'respect'
p6929
I620
sS'intact'
p6930
I2780
sS'garnett'
p6931
I5142
sS'o-'
p6932
I2779
sS'caribbean'
p6933
I1622
sS'mood'
p6934
I2778
sS'classmates'
p6935
I5141
sS'legal'
p6936
I1038
sS'mercenaries'
p6937
I5140
sS'goofy'
p6938
I2307
sS'provides'
p6939
I5139
sS'provider'
p6940
I3526
sS'metropolis'
p6941
I5138
sS'itching'
p6942
I5137
sS'communicate'
p6943
I2306
sS'weirdest'
p6944
I6578
sS'terrified'
p6945
I2775
sS'_'
p6946
I0
sS'oo'
p6947
I5135
sS'on'
p6948
I38
sS'om'
p6949
I5134
sS'ok'
p6950
I1506
sS'oj'
p6951
I1505
sS'oh'
p6952
I24
sS'jeep'
p6953
I3525
sS'of'
p6954
I21
sS'discussed'
p6955
I2304
sS'brittany'
p6956
I5133
sS'shrimp'
p6957
I3524
sS'stand'
p6958
I1061
sS'ow'
p6959
I5132
sS'ou'
p6960
I4215
sS'ot'
p6961
I5131
sS'or'
p6962
I40
sS'op'
p6963
I3522
sS'ladies'
p6964
I5130
sS'instruments'
p6965
I5129
sS'pick-up'
p6966
I5128
sS'cursed'
p6967
I5127
sS'clams'
p6968
I5901
sS'accounts'
p6969
I3192
sS'conjoined'
p6970
I6470
sS'determine'
p6971
I2303
sS'cro-magnon'
p6972
I5124
sS'strictly'
p6973
I3521
sS'there'
p6974
I36
sS'racism'
p6975
I3520
sS'strict'
p6976
I2009
sS'cultures'
p6977
I5123
sS'condone'
p6978
I5122
sS'fish'
p6979
I2774
sS'catholics'
p6980
I5121
sS'mischief'
p6981
I4342
sS'indire'
p6982
I5119
sS'vested'
p6983
I3519
sS'regard'
p6984
I5118
sS'cabinet'
p6985
I5117
sS'jus'
p6986
I1621
sS'fine-toothed'
p6987
I5116
sS'promote'
p6988
I3518
sS'longer'
p6989
I948
sS'applying'
p6990
I5115
sS'grasp'
p6991
I5114
sS'flats'
p6992
I5113
sS'strongly'
p6993
I3517
sS'toilet'
p6994
I2302
sS'taste'
p6995
I3516
sS'coconuts'
p6996
I7694
sS'cbs'
p6997
I5112
sS'politics'
p6998
I5110
sS'spends'
p6999
I5109
sS'incorrect'
p7000
I5108
sS'heather'
p7001
I5106
sS'idiot'
p7002
I2772
sS'deserve'
p7003
I1786
sS'insurance'
p7004
I1256
sS'trash'
p7005
I1245
sS'requested'
p7006
I5105
sS'mummies'
p7007
I5104
sS'championship'
p7008
I5103
sS'separate'
p7009
I2301
sS'symbol'
p7010
I1785
sS'bullets'
p7011
I5102
sS'twenty-first'
p7012
I5101
sS'included'
p7013
I2771
sS'accruals'
p7014
I5100
sS'stocks'
p7015
I1784
sS'ernie'
p7016
I7592
sS'calls'
p7017
I197
sS'wife'
p7018
I522
sS'invest'
p7019
I2300
sS'odds'
p7020
I3515
sS'websites'
p7021
I5099
sS"maier's"
p7022
I5098
sS'directory'
p7023
I5097
sS'songs'
p7024
I1454
sS'montego'
p7025
I5095
sS'all'
p7026
I56
sS'lace'
p7027
I5094
sS'ali'
p7028
I5093
sS'lack'
p7029
I1620
sS'pta'
p7030
I5092
sS'ala'
p7031
I5091
sS'disc'
p7032
I5090
sS'generalize'
p7033
I5089
sS'dish'
p7034
I3514
sS'alw'
p7035
I5088
sS'faster'
p7036
I2537
sS'decisions'
p7037
I1783
sS'apartment'
p7038
I889
sS'subjected'
p7039
I2769
sS'participants'
p7040
I2069
sS'thursday'
p7041
I1922
sS'init'
p7042
I5085
sS'program'
p7043
I412
sS'activities'
p7044
I1060
sS'fax'
p7045
I2299
sS'woman'
p7046
I631
sS'worse'
p7047
I916
sS'song'
p7048
I1572
sS'far'
p7049
I183
sS'ticked'
p7050
I3513
sS'fav'
p7051
I5084
sS'fat'
p7052
I1782
sS'ouch'
p7053
I3512
sS'psychologist'
p7054
I5083
sS'sons'
p7055
I1781
sS'worst'
p7056
I1145
sS'deliveries'
p7057
I5321
sS'fam'
p7058
I2767
sS'awful'
p7059
I1619
sS'ticket'
p7060
I1309
sS'treating'
p7061
I5081
sS'list'
p7062
I1504
sS'grandfather'
p7063
I3511
sS'epicurean'
p7064
I5080
sS'lisa'
p7065
I1780
sS'flick'
p7066
I2298
sS'tel'
p7067
I5079
sS'escalation'
p7068
I3510
sS'ten'
p7069
I323
sS'louvre'
p7070
I5078
sS'tea'
p7071
I2766
sS'ted'
p7072
I5077
sS'rate'
p7073
I1244
sS'invention'
p7074
I5076
sS'design'
p7075
I2297
sS'nbc'
p7076
I5075
sS'sue'
p7077
I2564
sS'sub'
p7078
I5074
sS'advantageous'
p7079
I5073
sS'sun'
p7080
I3509
sS'sum'
p7081
I5072
sS'musty'
p7082
I2296
sS'version'
p7083
I2765
sS'attitudes'
p7084
I2764
sS'sur'
p7085
I3508
sS'sup'
p7086
I3507
sS'row'
p7087
I1172
sS'guns'
p7088
I2007
sS'devoted'
p7089
I7027
sS'toes'
p7090
I3506
sS'christian'
p7091
I3505
sS'relationships'
p7092
I7233
sS'hungover'
p7093
I5069
sS'supposedly'
p7094
I1391
sS'mayoral'
p7095
I5068
sS'berkeley'
p7096
I5067
sS'directions'
p7097
I2763
sS'atms'
p7098
I7588
sS'tragedy'
p7099
I2762
sS'geared'
p7100
I2761
sS'naval'
p7101
I5066
sS'sbc'
p7102
I3833
sS'extremel'
p7103
I5065
sS'infringe'
p7104
I5063
sS'options'
p7105
I1008
sS'sticking'
p7106
I3503
sS'ninety-six'
p7107
I5521
sS'thankfully'
p7108
I5061
sS'suddenly'
p7109
I5060
sS'smay'
p7110
I5059
sS'commandments'
p7111
I5058
sS'semester'
p7112
I1503
sS'munchies'
p7113
I3502
sS'faint'
p7114
I2760
sS'nutcases'
p7115
I5057
sS'matchbox'
p7116
I5056
sS'baby-sat'
p7117
I7322
sS'branded'
p7118
I5055
sS'markets'
p7119
I5054
sS'minor'
p7120
I5053
sS'horses'
p7121
I3501
sS'flat'
p7122
I2759
sS'israel'
p7123
I5052
sS'mellon'
p7124
I5051
sS'knows'
p7125
I564
sS'flag'
p7126
I540
sS'floyd'
p7127
I3500
sS'stick'
p7128
I977
sS'known'
p7129
I1618
sS'mellow'
p7130
I5050
sS'glad'
p7131
I947
sS'ouija'
p7132
I3499
sS'di-did'
p7133
I5049
sS'v'
p7134
I3498
sS'malls'
p7135
I2703
sS'tennis'
p7136
I6229
sS'embarrassing'
p7137
I2295
sS'challenging'
p7138
I2294
sS'lightweight'
p7139
I4687
sS'protects'
p7140
I5046
sS'bucks'
p7141
I533
sS'airplane'
p7142
I2006
sS'swung'
p7143
I5045
sS'prisons'
p7144
I5044
sS'ice-skating'
p7145
I5043
sS'influenced'
p7146
I5042
sS'court'
p7147
I797
sS'goal'
p7148
I2293
sS'rather'
p7149
I603
sS'breaking'
p7150
I1109
sS'cleansing'
p7151
I5041
sS'occasionally'
p7152
I2758
sS'explains'
p7153
I3496
sS'sandwich'
p7154
I2757
sS'okay'
p7155
I46
sS'cancun'
p7156
I5040
sS'umpires'
p7157
I4194
sS'numb'
p7158
I5038
sS'softball'
p7159
I3495
sS'concentrating'
p7160
I5037
sS'dorms'
p7161
I2292
sS'short'
p7162
I1059
sS'susan'
p7163
I5036
sS'shady'
p7164
I5035
sS'supervision'
p7165
I3494
sS'caus'
p7166
I5034
sS'shore'
p7167
I2005
sS'shade'
p7168
I5033
sS"don't"
p7169
I73
sS'september'
p7170
I2291
sS'developed'
p7171
I3493
sS'mission'
p7172
I3492
sS'outraged'
p7173
I5032
sS'logan'
p7174
I5031
sS'littler'
p7175
I3491
sS'goinna'
p7176
I5030
sS'avenue'
p7177
I1617
sS'ytwok'
p7178
I5029
sS"penn's"
p7179
I2065
sS'thirtieth'
p7180
I5027
sS'style'
p7181
I2756
sS'susceptible'
p7182
I5026
sS'lipped'
p7183
I5025
sS'resort'
p7184
I2290
sS'parts'
p7185
I1058
sS'teens'
p7186
I7720
sS'bout'
p7187
I5023
sS'soccer'
p7188
I5022
sS'might'
p7189
I259
sS'return'
p7190
I1778
sS'hunter'
p7191
I3490
sS'annihilated'
p7192
I5313
sS'speechless'
p7193
I2289
sS'recliners'
p7194
I6463
sS'belittle'
p7195
I5020
sS'communities'
p7196
I2288
sS'vaughn'
p7197
I3489
sS'bigger'
p7198
I888
sS'nephews'
p7199
I2004
sS'athletics'
p7200
I2287
sS'medford'
p7201
I5019
sS'weighs'
p7202
I5018
sS'nicotine'
p7203
I5017
sS'weight'
p7204
I1390
sS'generation'
p7205
I2754
sS'colder'
p7206
I5335
sS'used'
p7207
I191
sS'brother'
p7208
I856
sS'expect'
p7209
I1108
sS'inflated'
p7210
I3487
sS'alcohol'
p7211
I1243
sS'wondered'
p7212
I5016
sS'anti-depressant'
p7213
I5015
sS'adhere'
p7214
I5014
sS'rightfully'
p7215
I6461
sS'health'
p7216
I1007
sS'hill'
p7217
I1777
sS'wisconsin'
p7218
I1776
sS'friday'
p7219
I1006
sS'guess'
p7220
I93
sS'randall'
p7221
I5010
sS'teach'
p7222
I704
sS'bushes'
p7223
I5009
sS'acura'
p7224
I5008
sS"year's"
p7225
I1389
sS'prejudice'
p7226
I5007
sS'threat'
p7227
I2753
sS'twenty'
p7228
I322
sS'feed'
p7229
I3486
sS'unhealthy'
p7230
I3485
sS'feel'
p7231
I213
sS'relate'
p7232
I2286
sS'fancy'
p7233
I5006
sS'traveled'
p7234
I1308
sS'feet'
p7235
I1242
sS'sympathy'
p7236
I5005
sS'fees'
p7237
I2752
sS'bland'
p7238
I5004
sS'slower'
p7239
I3599
sS'temples'
p7240
I5003
sS'passes'
p7241
I2285
sS'story'
p7242
I828
sS'leading'
p7243
I5002
sS'interviews'
p7244
I5001
sS'tougher'
p7245
I2751
sS'gpa'
p7246
I3484
sS'hangs'
p7247
I5000
sS'lobby'
p7248
I2750
sS'inhibitions'
p7249
I3483
sS'passed'
p7250
I1241
sS'finances'
p7251
I4999
sS'store'
p7252
I512
sS'headache'
p7253
I4998
sS'option'
p7254
I1208
sS'luckily'
p7255
I4996
sS'transaction'
p7256
I6458
sS'eighty-two'
p7257
I3482
sS'albeit'
p7258
I4944
sS'kind'
p7259
I92
sS'nagging'
p7260
I4994
sS'i-i'
p7261
I2284
sS'double'
p7262
I1690
sS'outrageous'
p7263
I1616
sS'outdoors'
p7264
I3481
sS'scanners'
p7265
I4992
sS'cleaner'
p7266
I4991
sS'motivation'
p7267
I4990
sS'uniforms'
p7268
I4989
sS'outstanding'
p7269
I4988
sS"radio's"
p7270
I4987
sS'machines'
p7271
I7223
sS'cleaned'
p7272
I2283
sS'wipers'
p7273
I3480
sS'sandwiched'
p7274
I4986
sS'nights'
p7275
I1775
sS'rochester'
p7276
I4985
sS'installed'
p7277
I7602
sS'bacteria'
p7278
I3596
sS'chairman'
p7279
I4984
sS'finding'
p7280
I2002
sS'puffing'
p7281
I4983
sS'foreman'
p7282
I4982
sS'added'
p7283
I3120
sS'rapist'
p7284
I7013
sS'intervened'
p7285
I4979
sS'inconvenience'
p7286
I3479
sS'reach'
p7287
I3679
sS'screenings'
p7288
I4977
sS'architects'
p7289
I4976
sS'react'
p7290
I2282
sS'cigarette'
p7291
I1005
sS'sandra'
p7292
I4975
sS'nothing'
p7293
I285
sS'seasons'
p7294
I3478
sS'screenwriter'
p7295
I4974
sS'dealers'
p7296
I3477
sS'windows'
p7297
I4973
sS'traditional'
p7298
I3476
sS'caching'
p7299
I1774
sS'institutions'
p7300
I3475
sS'lying'
p7301
I2749
sS'stones'
p7302
I4972
sS'kosovo'
p7303
I4971
sS'fond'
p7304
I4970
sS'stumped'
p7305
I4969
sS'cds'
p7306
I2281
sS'uniform'
p7307
I4216
sS'costing'
p7308
I4968
sS'deserts'
p7309
I4967
sS'confinement'
p7310
I3169
sS'penalty'
p7311
I2748
sS"mom's"
p7312
I2001
sS'hip'
p7313
I2747
sS'shepherd'
p7314
I3474
sS'his'
p7315
I222
sS'hit'
p7316
I621
sS'alicia'
p7317
I4965
sS'blank'
p7318
I4964
sS'longest'
p7319
I4963
sS'thugged'
p7320
I4065
sS'emails'
p7321
I2000
sS'fallible'
p7322
I4961
sS'investigate'
p7323
I4959
sS'cartoons'
p7324
I4958
sS'activity'
p7325
I1615
sS'wrote'
p7326
I2746
sS'bars'
p7327
I978
sS'art'
p7328
I608
sS'dump'
p7329
I3473
sS'achieved'
p7330
I6532
sS'intelligence'
p7331
I3472
sS'philipsburg'
p7332
I2280
sS'defense'
p7333
I2745
sS'dumb'
p7334
I1678
sS'are'
p7335
I30
sS'bark'
p7336
I3471
sS'ark'
p7337
I4955
sS'arm'
p7338
I2744
sS'recording'
p7339
I827
sS'visualize'
p7340
I4954
sS'threats'
p7341
I4953
sS'freshmen'
p7342
I4952
sS'slapped'
p7343
I4951
sS'libraries'
p7344
I826
sS'unions'
p7345
I653
sS'determined'
p7346
I3470
sS'various'
p7347
I1773
sS'typhoons'
p7348
I4950
sS'latin'
p7349
I1999
sS'recently'
p7350
I652
sS'soli'
p7351
I4949
sS'initially'
p7352
I4948
sS'sold'
p7353
I1501
sS'attention'
p7354
I724
sS'competent'
p7355
I4947
sS'condo'
p7356
I3469
sS'relying'
p7357
I3468
sS'c'
p7358
I681
sS'prescription'
p7359
I4946
sS'license'
p7360
I1240
sS'roman'
p7361
I4945
sS'became'
p7362
I1772
sS'witch'
p7363
I2279
sS'finds'
p7364
I3467
sS'arbitrarily'
p7365
I4943
sS'flies'
p7366
I4942
sS'lindross'
p7367
I4941
sS'reasons'
p7368
I1500
sS'perot'
p7369
I4033
sS'swerve'
p7370
I5890
sS'goldfish'
p7371
I7006
sS'regulated'
p7372
I4937
sS'rave'
p7373
I4936
sS'philipsberg'
p7374
I2278
sS'simpler'
p7375
I5579
sS'zampano'
p7376
I4935
sS'duh'
p7377
I4934
sS'pu'
p7378
I4933
sS'political'
p7379
I2277
sS'due'
p7380
I3466
sS'dug'
p7381
I4932
sS'pc'
p7382
I3465
sS'pa'
p7383
I1614
sS'brice'
p7384
I3464
sS'change'
p7385
I454
sS'pe'
p7386
I1771
sS'ph'
p7387
I2276
sS'pi'
p7388
I3463
sS'whoa'
p7389
I1032
sS'pl'
p7390
I2742
sS'pm'
p7391
I2741
sS'referee'
p7392
I4929
sS'sending'
p7393
I1239
sS'transferring'
p7394
I2275
sS'demand'
p7395
I2274
sS'bensinmacher'
p7396
I4928
sS'instructor'
p7397
I4927
sS'plants'
p7398
I4926
sS'stolen'
p7399
I3460
sS'shove'
p7400
I4925
sS'skousen'
p7401
I4924
sS'bachelors'
p7402
I1998
sS'homework'
p7403
I2132
sS'behavior'
p7404
I4923
sS'fernandez'
p7405
I4922
sS'engineers'
p7406
I2739
sS'bluegrass'
p7407
I4921
sS'disappointing'
p7408
I3459
sS'rio'
p7409
I5361
sS'nightstand'
p7410
I4919
sS'laundered'
p7411
I4918
sS'rig'
p7412
I4917
sS'rid'
p7413
I1307
sS'ethnicity'
p7414
I3458
sS'shirt'
p7415
I3457
sS'parading'
p7416
I4916
sS'salt-way'
p7417
I4915
sS'orders'
p7418
I5887
sS'peoples'
p7419
I4914
sS'advise'
p7420
I1613
sS'daughters'
p7421
I2738
sS'higher'
p7422
I723
sS'literature'
p7423
I3455
sS'negotiate'
p7424
I2737
sS'cement'
p7425
I4913
sS'holidays'
p7426
I887
sS'patriotic'
p7427
I4912
sS'ri-'
p7428
I4911
sS'moving'
p7429
I563
sS'lower'
p7430
I3454
sS'congregated'
p7431
I4909
sS'mini-'
p7432
I4908
sS'dancing'
p7433
I1997
sS'anybody'
p7434
I464
sS'edge'
p7435
I3453
sS'machinery'
p7436
I2736
sS'inspirational'
p7437
I3452
sS'aways'
p7438
I3451
sS'precedence'
p7439
I4906
sS'competitive'
p7440
I3450
sS'intervals'
p7441
I4905
sS'questions'
p7442
I579
sS'retired'
p7443
I1238
sS'prince'
p7444
I1499
sS'profitable'
p7445
I4904
sS'tables'
p7446
I3449
sS'workers'
p7447
I1237
sS'customers'
p7448
I796
sS'complains'
p7449
I4903
sS'k-mart'
p7450
I4902
sS'advocate'
p7451
I3448
sS'unlimited'
p7452
I1770
sS'sightings'
p7453
I4901
sS'moods'
p7454
I4900
sS'necessary'
p7455
I1856
sS'awaken'
p7456
I4898
sS'moody'
p7457
I4897
sS'mariah'
p7458
I4896
sS'ignore'
p7459
I3447
sS'collect'
p7460
I3446
sS'essential'
p7461
I4895
sS'ecology'
p7462
I3445
sS'fucking'
p7463
I2735
sS'incriminate'
p7464
I4894
sS'understood'
p7465
I1163
sS'litter'
p7466
I3444
sS'alphonso'
p7467
I4893
sS'easygoing'
p7468
I5884
sS'gradually'
p7469
I4892
sS'pros'
p7470
I2734
sS'seller'
p7471
I4891
sS'firsthand'
p7472
I7561
sS'lorraine'
p7473
I4890
sS'tends'
p7474
I2273
sS'prod'
p7475
I4889
sS'prob'
p7476
I2732
sS'lose'
p7477
I657
sS'chart'
p7478
I5883
sS'gollah'
p7479
I4887
sS'consolation'
p7480
I4886
sS'intense'
p7481
I2731
sS'vaccine'
p7482
I3442
sS'glaucoma'
p7483
I3935
sS"mcdonald's"
p7484
I2730
sS'frightful'
p7485
I4884
sS'stricken'
p7486
I4883
sS'range'
p7487
I3441
sS'modal'
p7488
I4882
sS'wanna'
p7489
I1612
sS'credible'
p7490
I4881
sS'muzak'
p7491
I4880
sS'pullings'
p7492
I4879
sS'mommy'
p7493
I3440
sS'impressed'
p7494
I3921
sS'rows'
p7495
I3439
sS'smoothly'
p7496
I4650
sS'question'
p7497
I349
sS'long'
p7498
I169
sS'vendors'
p7499
I4876
sS"we're"
p7500
I316
sS'summertime'
p7501
I2729
sS'sections'
p7502
I4874
sS'files'
p7503
I2271
sS'callowhill'
p7504
I4873
sS'tutored'
p7505
I4872
sS'girlfriends'
p7506
I4871
sS'cloth'
p7507
I3903
sS'enhancing'
p7508
I4869
sS'crane'
p7509
I4868
sS'junior'
p7510
I2270
sS'raising'
p7511
I3438
sS'pro-life'
p7512
I3437
sS'ten-year-old'
p7513
I4867
sS'fries'
p7514
I3436
sS"hasn't"
p7515
I1498
sS'z'
p7516
I4865
sS'called'
p7517
I243
sS'bell'
p7518
I1611
sS'individuality'
p7519
I4864
sS'associated'
p7520
I4863
sS'worthwhile'
p7521
I3435
sS'rally'
p7522
I4861
sS'rainbow'
p7523
I3434
sS'rainy'
p7524
I4860
sS'lemon'
p7525
I3433
sS'sixty-one'
p7526
I4324
sS'scares'
p7527
I1605
sS'towers'
p7528
I4859
sS'gra'
p7529
I4858
sS'raine'
p7530
I4857
sS'nice'
p7531
I160
sS'philadelphian'
p7532
I4856
sS'users'
p7533
I4855
sS'problems'
p7534
I429
sS'helping'
p7535
I1306
sS'meaning'
p7536
I4854
sS'allowing'
p7537
I3431
sS'unbendable'
p7538
I4851
sS'vice'
p7539
I2728
sS'departments'
p7540
I3429
sS'bulletin'
p7541
I4425
sS'impatient'
p7542
I4849
sS'weights'
p7543
I1996
sS'once'
p7544
I308
sS'filled/'
p7545
I4848
sS'resistance'
p7546
I4847
sS'alien'
p7547
I3633
sS'windy'
p7548
I4846
sS'gang'
p7549
I3428
sS'edu'
p7550
I3427
sS'adjustment'
p7551
I4844
sS'issues'
p7552
I1305
sS'languages'
p7553
I1057
sS'dramatically'
p7554
I4842
sS'waiters'
p7555
I4841
sS'heartaches'
p7556
I4840
sS'breathing'
p7557
I4839
sS'mainstream'
p7558
I2726
sS'bedrooms'
p7559
I4838
sS'spoon'
p7560
I4837
sS'wishes'
p7561
I665
sS'artery'
p7562
I4836
sS'drinking'
p7563
I853
sS'roaches'
p7564
I4835
sS'fast-paced'
p7565
I4834
sS'notes'
p7566
I3426
sS'leader'
p7567
I3359
sS'deals'
p7568
I2269
sS'dealt'
p7569
I3424
sS'nurenberg'
p7570
I5896
sS'outdo'
p7571
I4833
sS'noted'
p7572
I4832
sS'smaller'
p7573
I1496
sS"you'd"
p7574
I1304
sS'wrestling'
p7575
I915
sS'fina'
p7576
I3817
sS'traveling'
p7577
I1162
sS'reunion'
p7578
I3422
sS'makers'
p7579
I3794
sS'folk'
p7580
I4831
sS'universities'
p7581
I1610
sS'concessions'
p7582
I2268
sS'tuesdays'
p7583
I2723
sS"kennedy's"
p7584
I4830
sS'waiting'
p7585
I664
sS'capital'
p7586
I4829
sS'relocate'
p7587
I3420
sS'chose'
p7588
I1828
sS'degree'
p7589
I914
sS'sinuses'
p7590
I4828
sS'pushing'
p7591
I2722
sS'indicator'
p7592
I7554
sS'youngest'
p7593
I3417
sS'sexy'
p7594
I3416
sS'metro'
p7595
I2721
sS'larger'
p7596
I1995
sS'shades'
p7597
I4827
sS'leaving'
p7598
I795
sS'evading'
p7599
I4826
sS'nervous'
p7600
I1329
sS"dad's"
p7601
I3415
sS'snobby'
p7602
I4824
sS'spy'
p7603
I3414
sS'egypt'
p7604
I3413
sS'app'
p7605
I4823
sS'confession'
p7606
I4822
sS'apt'
p7607
I4821
sS'motor'
p7608
I4820
sS'duck'
p7609
I3412
sS'apply'
p7610
I1235
sS'nursing'
p7611
I4819
sS'fed'
p7612
I2898
sS'fee'
p7613
I4818
sS'lottery'
p7614
I2897
sS'stream'
p7615
I4817
sS'gere'
p7616
I4816
sS'fen'
p7617
I4815
sS'hypothetically'
p7618
I4814
sS'december'
p7619
I1140
sS'eagles'
p7620
I1768
sS'plantco'
p7621
I6984
sS'automobile'
p7622
I4812
sS'sort'
p7623
I338
sS'parliament'
p7624
I4811
sS'inclined'
p7625
I3411
sS'antennae'
p7626
I4810
sS'dougherty'
p7627
I2719
sS'women'
p7628
I1234
sS'dusted'
p7629
I4809
sS'condominium'
p7630
I4757
sS'teamship'
p7631
I4808
sS'proof'
p7632
I2718
sS'tap'
p7633
I2717
sS'tar'
p7634
I4806
sS'tax'
p7635
I913
sS'dripping'
p7636
I4805
sS'tag'
p7637
I4804
sS'something'
p7638
I89
sS'tal'
p7639
I4803
sS'serial'
p7640
I4802
sS'locking'
p7641
I4801
sS'rape'
p7642
I3410
sS'sir'
p7643
I3760
sS'united'
p7644
I825
sS'syndrome'
p7645
I2716
sS'sit'
p7646
I428
sS'six'
p7647
I241
sS'carries'
p7648
I2715
sS'fortunate'
p7649
I3409
sS'traders'
p7650
I4799
sS'hopped'
p7651
I5873
sS'carrier'
p7652
I3408
sS'slamming'
p7653
I4798
sS'instead'
p7654
I852
sS'sim'
p7655
I3752
sS'attend'
p7656
I3751
sS'immersed'
p7657
I4795
sS'hazard'
p7658
I4794
sS'perjury'
p7659
I2267
sS'tack'
p7660
I4793
sS'ethnic'
p7661
I4792
sS'ta-'
p7662
I3407
sS'light'
p7663
I976
sS'begi'
p7664
I4791
sS'interrupted'
p7665
I4790
sS'honestly'
p7666
I1303
sS'tenure'
p7667
I4789
sS'si-'
p7668
I4788
sS'preparing'
p7669
I2714
sS'rusted'
p7670
I4787
sS'wawa'
p7671
I1767
sS'looks'
p7672
I703
sS'charlene'
p7673
I4786
sS'linguistics'
p7674
I4785
sS'ships'
p7675
I4784
sS'permanent'
p7676
I4783
sS'choose'
p7677
I946
sS'orange'
p7678
I3406
sS'covered'
p7679
I4782
sS'bye'
p7680
I1404
sS'crowds'
p7681
I4781
sS'crash'
p7682
I3405
sS'material'
p7683
I1766
sS'flew'
p7684
I3404
sS'ambition'
p7685
I4780
sS'flee'
p7686
I4779
sS'motorcycles'
p7687
I5863
sS'worlds'
p7688
I2713
sS"night's"
p7689
I4777
sS'edit'
p7690
I4776
sS'nfl'
p7691
I3403
sS'billy'
p7692
I4775
sS'fiddle'
p7693
I4774
sS'bills'
p7694
I2266
sS'studios'
p7695
I4773
sS'artists'
p7696
I6424
sS'unbelievable'
p7697
I1302
sS'related'
p7698
I1994
sS'fried'
p7699
I6058
sS'sectional'
p7700
I4771
sS'our'
p7701
I154
sS'out'
p7702
I64
sS'category'
p7703
I4770
sS'respects'
p7704
I2265
sS'blues'
p7705
I1734
sS'vcr'
p7706
I2264
sS'york'
p7707
I345
sS'dumpster'
p7708
I3402
sS'conflicts'
p7709
I3401
sS'networking'
p7710
I6421
sS'anyhow'
p7711
I3400
sS'gospel'
p7712
I4768
sS'reenactments'
p7713
I4767
sS'g'
p7714
I602
sS'conversation'
p7715
I1233
sS'grandmom'
p7716
I2893
sS'obscurity'
p7717
I4765
sS'echo'
p7718
I2712
sS'eleventh'
p7719
I1993
sS'digitizing'
p7720
I4764
sS'noticed'
p7721
I1264
sS'ser'
p7722
I7547
sS"doesn't"
p7723
I392
sS'righ'
p7724
I4761
sS'overtime'
p7725
I1232
sS'unknown'
p7726
I3662
sS'carmight'
p7727
I7367
sS'accent'
p7728
I2711
sS'fenstermacher'
p7729
I6401
sS'inmate'
p7730
I5448
sS'their'
p7731
I122
sS'kutztown'
p7732
I4759
sS"god's"
p7733
I3399
sS'shelf'
p7734
I4758
sS'dreadlocks'
p7735
I4755
sS'deniro'
p7736
I3398
sS'noses'
p7737
I4754
sS'boring'
p7738
I1160
sS'richer'
p7739
I4753
sS'tommy'
p7740
I4752
sS'frugal'
p7741
I4751
sS'patients'
p7742
I4750
sS'eltr'
p7743
I4749
sS'clip'
p7744
I4748
sS'teenagers'
p7745
I1765
sS"canada's"
p7746
I6417
sS'academically'
p7747
I3397
sS'catholic'
p7748
I1301
sS'afraid'
p7749
I767
sS'screentop'
p7750
I4746
sS'allergies'
p7751
I4745
sS'agency'
p7752
I2263
sS'which'
p7753
I200
sS'pre-pays'
p7754
I6416
sS'pharmacist'
p7755
I3396
sS're-opening'
p7756
I4744
sS'whe'
p7757
I2023
sS'wha'
p7758
I702
sS'combat'
p7759
I4743
sS'who'
p7760
I115
sS'whi'
p7761
I4742
sS'harmful'
p7762
I3394
sS'cracking'
p7763
I2708
sS'fortieth'
p7764
I3393
sS'highschool'
p7765
I1764
sS'why'
p7766
I153
sS"husband's"
p7767
I3392
sS'fricking'
p7768
I4741
sS'denz'
p7769
I4740
sS'deny'
p7770
I4739
sS'surpri'
p7771
I3391
sS'argyl'
p7772
I3390
sS'mishaps'
p7773
I5339
sS'non-corporate'
p7774
I4737
sS'looked'
p7775
I700
sS'gain'
p7776
I2262
sS'bulging'
p7777
I4735
sS'chances'
p7778
I4734
sS'sceptical'
p7779
I4733
sS'stove'
p7780
I4732
sS'spanking'
p7781
I4731
sS'chapters'
p7782
I4730
sS'planning'
p7783
I1609
sS'fear'
p7784
I4729
sS"kid's"
p7785
I2412
sS'debate'
p7786
I3389
sS'filmed'
p7787
I3065
sS'noles'
p7788
I4727
sS'candidates'
p7789
I4726
sS'piano'
p7790
I2261
sS'thousands'
p7791
I2334
sS'sued'
p7792
I4725
sS'watching'
p7793
I424
sS'lay-offs'
p7794
I3578
sS'massacre'
p7795
I4724
sS'ones'
p7796
I386
sS'cubs'
p7797
I4723
sS'words'
p7798
I1063
sS'bronco'
p7799
I4721
sS'chips'
p7800
I4720
sS'ghetto'
p7801
I2706
sS'partic'
p7802
I4719
sS'champagne'
p7803
I3387
sS'qu'
p7804
I4718
sS'ended'
p7805
I793
sS"tv's"
p7806
I2908
sS'differential'
p7807
I3386
sS'affluent'
p7808
I3385
sS'qa'
p7809
I3384
sS'/as'
p7810
I270
sS"food's"
p7811
I4716
sS'view'
p7812
I1763
sS'available'
p7813
I851
sS'requirement'
p7814
I1300
sS'expel'
p7815
I4715
sS'merits'
p7816
I4714
sS'unfairly'
p7817
I4713
sS'closer'
p7818
I1495
sS'closes'
p7819
I4712
sS'televised'
p7820
I1004
sS'closet'
p7821
I4711
sS'call-waiting'
p7822
I3383
sS'broach'
p7823
I5202
sS'favor'
p7824
I4456
sS'mexicans'
p7825
I3382
sS'fifties'
p7826
I1992
sS'closed'
p7827
I1386
sS'limit'
p7828
I1231
sS'brosnan'
p7829
I3381
sS'frustrated'
p7830
I3380
sS'bought'
p7831
I607
sS'ability'
p7832
I1991
sS'opening'
p7833
I1762
sS'joy'
p7834
I4708
sS'exac'
p7835
I1761
sS'job'
p7836
I207
sS'joe'
p7837
I2705
sS'spoil'
p7838
I4707
sS'hobo'
p7839
I4706
sS'commands'
p7840
I4705
sS'budgeting'
p7841
I5165
sS'april'
p7842
I3378
sS'bigheadedness'
p7843
I3377
sS'bronx'
p7844
I2260
sS'safely'
p7845
I3376
sS'wall'
p7846
I1107
sS'walk'
p7847
I592
sS'worldly'
p7848
I4704
sS'table'
p7849
I949
sS'narrowed'
p7850
I3375
sS'trays'
p7851
I4703
sS'blink'
p7852
I3374
sS'cavities'
p7853
I3373
sS'decent'
p7854
I766
sS'remedies'
p7855
I7197
sS'colloquialisms'
p7856
I4702
sS'mike'
p7857
I1608
sS'proudest'
p7858
I4701
sS'painted'
p7859
I4700
sS'sufficient'
p7860
I4699
sS'hmm'
p7861
I4698
sS'memo-type'
p7862
I4697
sS'mcat'
p7863
I4696
sS'improved'
p7864
I4695
sS'present'
p7865
I2704
sS'twist'
p7866
I2125
sS'abandoned'
p7867
I3372
sS'try-outs'
p7868
I4693
sS'choices'
p7869
I3371
sS'will'
p7870
I99
sS'influential'
p7871
I7536
sS'wild'
p7872
I885
sS'medicinal'
p7873
I2892
sS"nobody's"
p7874
I1990
sS'rename'
p7875
I5062
sS'ringing'
p7876
I1607
sS'refs'
p7877
I3370
sS'thus'
p7878
I4689
sS'audiences'
p7879
I5048
sS'phenomenons'
p7880
I4688
sS'dual'
p7881
I3369
sS'stroudsburg'
p7882
I3497
sS'thug'
p7883
I4686
sS'mally'
p7884
I4685
sS'education'
p7885
I384
sS'perhaps'
p7886
I1989
sS'privileges'
p7887
I4683
sS'waitresses'
p7888
I3368
sS'cross'
p7889
I1494
sS'member'
p7890
I1230
sS'propensity'
p7891
I4682
sS'unity'
p7892
I4681
sS'geographical'
p7893
I4680
sS'largest'
p7894
I4679
sS'samson'
p7895
I4678
sS'gets'
p7896
I358
sS'difficult'
p7897
I680
sS'raisers'
p7898
I4677
sS'coached'
p7899
I4676
sS'disagree'
p7900
I2702
sS'coaches'
p7901
I4675
sS'student'
p7902
I591
sS'collar'
p7903
I3367
sS'warming'
p7904
I4674
sS'pre-pay'
p7905
I3366
sS'approve'
p7906
I4673
sS'ingredients'
p7907
I4672
sS'unpacked'
p7908
I4671
sS'fighting'
p7909
I1988
sS'binghampton'
p7910
I4670
sS'scruples'
p7911
I4669
sS'english'
p7912
I694
sS'outgrow'
p7913
I4667
sS'breaker'
p7914
I4666
sS'rocker'
p7915
I4665
sS'excessive'
p7916
I2701
sS'heavily'
p7917
I2258
sS'percent'
p7918
I663
sS'wealthy'
p7919
I2257
sS'batteries'
p7920
I2256
sS'fishing'
p7921
I1606
sS'courtship'
p7922
I6965
sS'happiness'
p7923
I2700
sS'nicky'
p7924
I4662
sS'guts'
p7925
I4661
sS'sky'
p7926
I3365
sS'capabilities'
p7927
I4660
sS'discuss'
p7928
I844
sS'book'
p7929
I619
sS'attractive'
p7930
I4659
sS'smart'
p7931
I1493
sS'ski'
p7932
I1106
sS'earthquakes'
p7933
I2255
sS'sick'
p7934
I850
sS'myth'
p7935
I4658
sS"who's"
p7936
I1385
sS'siemens'
p7937
I1986
sS'know'
p7938
I15
sS'presume'
p7939
I4657
sS'press'
p7940
I1159
sS'slumpy'
p7941
I4656
sS'hollow'
p7942
I3364
sS'helpful'
p7943
I2254
sS'panicking'
p7944
I4655
sS'miami'
p7945
I1760
sS'wonderf'
p7946
I4654
sS'loses'
p7947
I4653
sS'taxpayers'
p7948
I3363
sS'james'
p7949
I2698
sS'abso'
p7950
I4652
sS'wonders'
p7951
I4651
sS'because'
p7952
I55
sS'tumble'
p7953
I4877
sS'scared'
p7954
I945
sS'scottish'
p7955
I4649
sS'searching'
p7956
I3362
sS'ventilated'
p7957
I2697
sS'growth'
p7958
I4648
sS'export'
p7959
I4647
sS'empire'
p7960
I4646
sS'meatloaf'
p7961
I2696
sS'employment'
p7962
I1985
sS'krisak'
p7963
I4448
sS'leaf'
p7964
I4645
sS'lead'
p7965
I3430
sS'severance'
p7966
I3361
sS'leah'
p7967
I4644
sS'lean'
p7968
I3360
sS'leap'
p7969
I4643
sS'bosses'
p7970
I4642
sS'vesting'
p7971
I3425
sS'murderer'
p7972
I4641
sS'dangling'
p7973
I4640
sS'forty-seven'
p7974
I3358
sS'pottstown'
p7975
I2694
sS'lehr'
p7976
I4639
sS'nationalities'
p7977
I3357
sS'paste'
p7978
I4638
sS'rare'
p7979
I1984
sS'carried'
p7980
I2693
sS'extension'
p7981
I4637
sS'getting'
p7982
I170
sS'hookup'
p7983
I3356
sS'universe'
p7984
I2692
sS'abstinence'
p7985
I3355
sS'shipping'
p7986
I2253
sS'lizards'
p7987
I4636
sS'perks'
p7988
I4635
sS'swear'
p7989
I4634
sS'own'
p7990
I332
sS'weather'
p7991
I792
sS'ex-girlfriend'
p7992
I4633
sS'fired'
p7993
I1492
sS'transfer'
p7994
I1983
sS'faithfully'
p7995
I4632
sS'kidding'
p7996
I1056
sS'intention'
p7997
I4631
sS'vas'
p7998
I4630
sS'omnip'
p7999
I4566
sS'appa'
p8000
I4628
sS"i've"
p8001
I219
sS'funds'
p8002
I3354
sS'moravian'
p8003
I3353
sS'volume'
p8004
I3352
sS'mailed'
p8005
I3351
sS'good-bye'
p8006
I4627
sS'squeeze'
p8007
I4626
sS'challenges'
p8008
I6957
sS'made'
p8009
I253
sS'temp'
p8010
I3350
sS'whether'
p8011
I488
sS'distract'
p8012
I4624
sS'record'
p8013
I1384
sS'below'
p8014
I4623
sS'cake'
p8015
I4622
sS'jenny'
p8016
I4621
sS'inadequate'
p8017
I4620
sS'goodness'
p8018
I572
sS'ew'
p8019
I784
sS'mutual'
p8020
I2252
sS'avoided'
p8021
I6955
sS'incredible'
p8022
I1229
sS'boot'
p8023
I4664
sS'other'
p8024
I125
sS'boom'
p8025
I3348
sS'branch'
p8026
I2699
sS'er'
p8027
I4198
sS'clicks'
p8028
I4619
sS'junk'
p8029
I2691
sS'kinds'
p8030
I1228
sS'june'
p8031
I2690
sS'kinda'
p8032
I2251
sS'priced'
p8033
I5841
sS'cliff'
p8034
I4618
sS'boo-'
p8035
I4617
sS'pods'
p8036
I4616
s.